

Microchip MPLAB XC8 Assembler V2.40 build 20220703182018 
                                                                                               Fri Nov 04 18:05:20 2022

Microchip MPLAB XC8 C Compiler v2.40 (Free license) build 20220703182018 Og1 
     1                           	processor	18F67K40
     2                           	fnconf	rparam,??,?,0
     3                           	pagewidth 120
     4                           	opt	flic
     5                           	psect	nvCOMRAM,global,class=COMRAM,space=1,delta=1,lowdata,noexec
     6                           	psect	cinit,global,reloc=2,class=CODE,delta=1
     7                           	psect	bssCOMRAM,global,class=COMRAM,space=1,delta=1,lowdata,noexec
     8                           	psect	cstackCOMRAM,global,class=COMRAM,space=1,delta=1,lowdata,noexec
     9                           	psect	text0,global,reloc=2,class=CODE,delta=1
    10                           	psect	text1,global,reloc=2,class=CODE,delta=1
    11                           	psect	text2,global,reloc=2,class=CODE,delta=1,group=1
    12                           	psect	text3,global,reloc=2,class=CODE,delta=1,group=1
    13                           	psect	text4,global,reloc=2,class=CODE,delta=1,group=1
    14                           	psect	text5,global,reloc=2,class=CODE,delta=1,group=1
    15                           	psect	text6,global,reloc=2,class=CODE,delta=1
    16                           	psect	text7,global,reloc=2,class=CODE,delta=1
    17                           	psect	text8,global,reloc=2,class=CODE,delta=1
    18                           	psect	text9,global,reloc=2,class=CODE,delta=1
    19                           	psect	text10,global,reloc=2,class=CODE,delta=1
    20                           	psect	text11,global,reloc=2,class=CODE,delta=1
    21                           	psect	intcode,global,reloc=2,class=CODE,delta=1
    22                           	psect	text13,global,reloc=2,class=CODE,delta=1
    23                           	psect	text14,global,reloc=2,class=CODE,delta=1,group=1
    24                           	psect	intsave_regs,global,class=BIGRAM,space=1,delta=1,noexec
    25                           	psect	rparam,global,class=COMRAM,space=1,delta=1,noexec
    26                           	psect	temp,global,ovrld,common,class=COMRAM,space=1,delta=1
    27                           	psect	idloc,global,abs,ovrld,class=IDLOC,space=5,delta=1,noexec
    28                           	psect	config,global,abs,ovrld,class=CONFIG,space=4,delta=1,noexec
    29   000000                     
    30                           ; Version 2.35
    31                           ; Generated 05/05/2021 GMT
    32                           ; 
    33                           ; Copyright © 2021, Microchip Technology Inc. and its subsidiaries ("Microchip")
    34                           ; All rights reserved.
    35                           ; 
    36                           ; This software is developed by Microchip Technology Inc. and its subsidiaries ("Microch
      +                          ip").
    37                           ; 
    38                           ; Redistribution and use in source and binary forms, with or without modification, are
    39                           ; permitted provided that the following conditions are met:
    40                           ; 
    41                           ;     1. Redistributions of source code must retain the above copyright notice, this lis
      +                          t of
    42                           ;        conditions and the following disclaimer.
    43                           ; 
    44                           ;     2. Redistributions in binary form must reproduce the above copyright notice, this 
      +                          list
    45                           ;        of conditions and the following disclaimer in the documentation and/or other
    46                           ;        materials provided with the distribution. Publication is not required when
    47                           ;        this file is used in an embedded application.
    48                           ; 
    49                           ;     3. Microchip's name may not be used to endorse or promote products derived from th
      +                          is
    50                           ;        software without specific prior written permission.
    51                           ; 
    52                           ; THIS SOFTWARE IS PROVIDED BY MICROCHIP "AS IS" AND ANY EXPRESS OR IMPLIED WARRANTIES,
    53                           ; INCLUDING, BUT NOT LIMITED TO, THE IMPLIED WARRANTIES OF MERCHANTABILITY AND FITNESS F
      +                          OR
    54                           ; PURPOSE ARE DISCLAIMED.  IN NO EVENT SHALL MICROCHIP BE LIABLE FOR ANY DIRECT, INDIREC
      +                          T,
    55                           ; INCIDENTAL, SPECIAL, EXEMPLARY, OR CONSEQUENTIAL DAMAGES (INCLUDING BUT NOT LIMITED TO
    56                           ; PROCUREMENT OF SUBSTITUTE GOODS OR SERVICES; LOSS OF USE, DATA OR PROFITS; OR BUSINESS
    57                           ; INTERRUPTION) HOWSOEVER CAUSED AND ON ANY THEORY OF LIABILITY, WHETHER IN CONTRACT, ST
      +                          RICT
    58                           ; LIABILITY, OR TORT (INCLUDING NEGLIGENCE OR OTHERWISE) ARISING IN ANY WAY OUT OF THE U
      +                          SE OF
    59                           ; THIS SOFTWARE, EVEN IF ADVISED OF THE POSSIBILITY OF SUCH DAMAGE.
    60                           ; 
    61                           ; 
    62                           ; Code-generator required, PIC18F67K40 Definitions
    63                           ; 
    64                           ; SFR Addresses
    65   000000                     _T0CON0bits	set	4053
    66   000000                     _T0CON1bits	set	4054
    67   000000                     _CM1CON1bits	set	3793
    68   000000                     _TRISHbits	set	3976
    69   000000                     _LATHbits	set	3968
    70   000000                     _PORTAbits	set	3977
    71   000000                     _PORTGbits	set	3983
    72                           
    73                           	psect	nvCOMRAM
    74   000045                     __pnvCOMRAM:
    75                           	callstack 0
    76   000045                     _test_mode:
    77                           	callstack 0
    78   000045                     	ds	2
    79   000000                     _IPR2bits	set	3617
    80   000000                     _PIE2bits	set	3627
    81   000000                     _DAC1CON0bits	set	3782
    82   000000                     _LATAbits	set	3961
    83   000000                     _LATGbits	set	3967
    84   000000                     _TRISAbits	set	3969
    85   000000                     _TRISGbits	set	3975
    86   000000                     _TRISDbits	set	3972
    87   000000                     _TRISBbits	set	3970
    88   000000                     _TRISFbits	set	3974
    89   000000                     _TMR0L	set	4051
    90   000000                     _TMR0H	set	4052
    91   000000                     _INTCONbits	set	4082
    92   000000                     _PORTBbits	set	3978
    93   000000                     _PORTFbits	set	3982
    94   000000                     _LATDbits	set	3964
    95   000000                     _LATBbits	set	3962
    96   000000                     _LATFbits	set	3966
    97   000000                     _CM1CON0bits	set	3792
    98   000000                     _CM1NCHbits	set	3794
    99   000000                     _DAC1CON1bits	set	3783
   100   000000                     _CM1PCHbits	set	3795
   101   000000                     _PIR0bits	set	3635
   102   000000                     _PIR2bits	set	3637
   103   000000                     _PIE0bits	set	3625
   104                           
   105                           ; #config settings
   106                           
   107                           	psect	cinit
   108   000B7A                     __pcinit:
   109                           	callstack 0
   110   000B7A                     start_initialization:
   111                           	callstack 0
   112   000B7A                     __initialization:
   113                           	callstack 0
   114                           
   115                           ; Clear objects allocated to COMRAM (4 bytes)
   116   000B7A  6A44               	clrf	(__pbssCOMRAM+3)& (0+255),c
   117   000B7C  6A43               	clrf	(__pbssCOMRAM+2)& (0+255),c
   118   000B7E  6A42               	clrf	(__pbssCOMRAM+1)& (0+255),c
   119   000B80  6A41               	clrf	__pbssCOMRAM& (0+255),c
   120   000B82                     end_of_initialization:
   121                           	callstack 0
   122   000B82                     __end_of__initialization:
   123                           	callstack 0
   124   000B82  9047               	bcf	int$flags,0,c	;clear compiler interrupt flag (level 1)
   125   000B84  9247               	bcf	int$flags,1,c	;clear compiler interrupt flag (level 2)
   126   000B86  0100               	movlb	0
   127   000B88  EFF6  F003         	goto	_main	;jump to C main() function
   128                           
   129                           	psect	bssCOMRAM
   130   000041                     __pbssCOMRAM:
   131                           	callstack 0
   132   000041                     _time_counter:
   133                           	callstack 0
   134   000041                     	ds	4
   135                           
   136                           	psect	cstackCOMRAM
   137   000001                     __pcstackCOMRAM:
   138                           	callstack 0
   139   000001                     ?___lmul:
   140                           	callstack 0
   141   000001                     ___lmul@multiplier:
   142                           	callstack 0
   143                           
   144                           ; 4 bytes @ 0x0
   145   000001                     	ds	4
   146   000005                     ___lmul@multiplicand:
   147                           	callstack 0
   148                           
   149                           ; 4 bytes @ 0x4
   150   000005                     	ds	4
   151   000009                     ___lmul@product:
   152                           	callstack 0
   153                           
   154                           ; 4 bytes @ 0x8
   155   000009                     	ds	4
   156   00000D                     increment_time@increment:
   157                           	callstack 0
   158                           
   159                           ; 4 bytes @ 0xC
   160   00000D                     	ds	4
   161   000011                     ??_HighISR:
   162                           
   163                           ; 1 bytes @ 0x10
   164   000011                     	ds	1
   165   000012                     ?___fltol:
   166                           	callstack 0
   167   000012                     ?___xxtofl:
   168                           	callstack 0
   169   000012                     Timer0_init@init_test_mode:
   170                           	callstack 0
   171   000012                     ___flge@ff1:
   172                           	callstack 0
   173   000012                     ___fltol@f1:
   174                           	callstack 0
   175   000012                     ___xxtofl@val:
   176                           	callstack 0
   177                           
   178                           ; 4 bytes @ 0x11
   179   000012                     	ds	2
   180   000014                     
   181                           ; 1 bytes @ 0x13
   182   000014                     	ds	2
   183   000016                     ??___fltol:
   184   000016                     ??___xxtofl:
   185   000016                     ___flge@ff2:
   186                           	callstack 0
   187                           
   188                           ; 4 bytes @ 0x15
   189   000016                     	ds	4
   190   00001A                     ??___flge:
   191   00001A                     ___fltol@sign1:
   192                           	callstack 0
   193   00001A                     ___xxtofl@sign:
   194                           	callstack 0
   195                           
   196                           ; 1 bytes @ 0x19
   197   00001A                     	ds	1
   198   00001B                     ___fltol@exp1:
   199                           	callstack 0
   200   00001B                     ___xxtofl@exp:
   201                           	callstack 0
   202                           
   203                           ; 1 bytes @ 0x1A
   204   00001B                     	ds	1
   205   00001C                     LEDarray_disp_bin@number:
   206                           	callstack 0
   207   00001C                     ___xxtofl@arg:
   208                           	callstack 0
   209                           
   210                           ; 4 bytes @ 0x1B
   211   00001C                     	ds	2
   212   00001E                     
   213                           ; 1 bytes @ 0x1D
   214   00001E                     	ds	2
   215   000020                     ?___fldiv:
   216                           	callstack 0
   217   000020                     ___fldiv@b:
   218                           	callstack 0
   219                           
   220                           ; 4 bytes @ 0x1F
   221   000020                     	ds	4
   222   000024                     ___fldiv@a:
   223                           	callstack 0
   224                           
   225                           ; 4 bytes @ 0x23
   226   000024                     	ds	4
   227   000028                     ??___fldiv:
   228                           
   229                           ; 1 bytes @ 0x27
   230   000028                     	ds	4
   231   00002C                     ___fldiv@rem:
   232                           	callstack 0
   233                           
   234                           ; 4 bytes @ 0x2B
   235   00002C                     	ds	4
   236   000030                     ___fldiv@sign:
   237                           	callstack 0
   238                           
   239                           ; 1 bytes @ 0x2F
   240   000030                     	ds	1
   241   000031                     ___fldiv@new_exp:
   242                           	callstack 0
   243                           
   244                           ; 2 bytes @ 0x30
   245   000031                     	ds	2
   246   000033                     ___fldiv@grs:
   247                           	callstack 0
   248                           
   249                           ; 4 bytes @ 0x32
   250   000033                     	ds	4
   251   000037                     ___fldiv@bexp:
   252                           	callstack 0
   253                           
   254                           ; 1 bytes @ 0x36
   255   000037                     	ds	1
   256   000038                     ___fldiv@aexp:
   257                           	callstack 0
   258                           
   259                           ; 1 bytes @ 0x37
   260   000038                     	ds	1
   261   000039                     ?_get_hour:
   262                           	callstack 0
   263                           
   264                           ; 4 bytes @ 0x38
   265   000039                     	ds	4
   266   00003D                     main@time:
   267                           	callstack 0
   268                           
   269                           ; 4 bytes @ 0x3C
   270   00003D                     	ds	4
   271                           
   272 ;;
   273 ;;Main: autosize = 0, tempsize = 0, incstack = 0, save=0
   274 ;;
   275 ;; *************** function _main *****************
   276 ;; Defined at:
   277 ;;		line 17 in file "main.c"
   278 ;; Parameters:    Size  Location     Type
   279 ;;		None
   280 ;; Auto vars:     Size  Location     Type
   281 ;;  time            4   60[COMRAM] float 
   282 ;; Return value:  Size  Location     Type
   283 ;;                  1    wreg      void 
   284 ;; Registers used:
   285 ;;		wreg, status,2, status,0, cstack
   286 ;; Tracked objects:
   287 ;;		On entry : 0/0
   288 ;;		On exit  : 0/0
   289 ;;		Unchanged: 0/0
   290 ;; Data sizes:     COMRAM   BANK0   BANK1   BANK2   BANK3   BANK4   BANK5   BANK6   BANK7   BANK8   BANK9  BANK10  BANK1
      +1  BANK12  BANK13
   291 ;;      Params:         0       0       0       0       0       0       0       0       0       0       0       0       
      +0       0       0
   292 ;;      Locals:         4       0       0       0       0       0       0       0       0       0       0       0       
      +0       0       0
   293 ;;      Temps:          0       0       0       0       0       0       0       0       0       0       0       0       
      +0       0       0
   294 ;;      Totals:         4       0       0       0       0       0       0       0       0       0       0       0       
      +0       0       0
   295 ;;Total ram usage:        4 bytes
   296 ;; Hardware stack levels required when called: 5
   297 ;; This function calls:
   298 ;;		_Comp1_init
   299 ;;		_Interrupts_init
   300 ;;		_LEDarray_disp_bin
   301 ;;		_LEDarray_init
   302 ;;		_Timer0_init
   303 ;;		___flge
   304 ;;		___fltol
   305 ;;		_get_hour
   306 ;; This function is called by:
   307 ;;		Startup code after reset
   308 ;; This function uses a non-reentrant model
   309 ;;
   310                           
   311                           	psect	text0
   312   0007EC                     __ptext0:
   313                           	callstack 0
   314   0007EC                     _main:
   315                           	callstack 26
   316   0007EC                     
   317                           ;main.c: 19:     LATHbits.LATH3=0;
   318   0007EC  9680               	bcf	128,3,c	;volatile
   319                           
   320                           ;main.c: 20:     TRISHbits.TRISH3=0;
   321   0007EE  9688               	bcf	136,3,c	;volatile
   322                           
   323                           ;main.c: 22:     TRISDbits.TRISD7=0;
   324   0007F0  9E84               	bcf	132,7,c	;volatile
   325                           
   326                           ;main.c: 23:     LATDbits.LATD7=1;
   327   0007F2  8E7C               	bsf	124,7,c	;volatile
   328                           
   329                           ;main.c: 25:     TRISAbits.TRISA3=1;
   330   0007F4  8681               	bsf	129,3,c	;volatile
   331                           
   332                           ;main.c: 27:     LATHbits.LATH3 = 1;
   333   0007F6  8680               	bsf	128,3,c	;volatile
   334   0007F8                     
   335                           ;main.c: 28:     Comp1_init();
   336   0007F8  ECA1  F005         	call	_Comp1_init	;wreg free
   337   0007FC                     
   338                           ;main.c: 29:     Interrupts_init();
   339   0007FC  ECC6  F005         	call	_Interrupts_init	;wreg free
   340   000800                     
   341                           ;main.c: 30:     Timer0_init(1);
   342   000800  0E00               	movlw	0
   343   000802  6E13               	movwf	(Timer0_init@init_test_mode+1)^0,c
   344   000804  0E01               	movlw	1
   345   000806  6E12               	movwf	Timer0_init@init_test_mode^0,c
   346   000808  EC60  F005         	call	_Timer0_init	;wreg free
   347   00080C                     
   348                           ;main.c: 31:     LEDarray_init();
   349   00080C  EC85  F005         	call	_LEDarray_init	;wreg free
   350   000810                     l1638:
   351                           
   352                           ;main.c: 35:         float time = get_hour();
   353   000810  EC3A  F005         	call	_get_hour	;wreg free
   354   000814  C039  F03D         	movff	?_get_hour,main@time
   355   000818  C03A  F03E         	movff	?_get_hour+1,main@time+1
   356   00081C  C03B  F03F         	movff	?_get_hour+2,main@time+2
   357   000820  C03C  F040         	movff	?_get_hour+3,main@time+3
   358   000824                     
   359                           ;main.c: 36:         LEDarray_disp_bin((unsigned int) time);
   360   000824  C03D  F012         	movff	main@time,___fltol@f1
   361   000828  C03E  F013         	movff	main@time+1,___fltol@f1+1
   362   00082C  C03F  F014         	movff	main@time+2,___fltol@f1+2
   363   000830  C040  F015         	movff	main@time+3,___fltol@f1+3
   364   000834  ECF1  F002         	call	___fltol	;wreg free
   365   000838  C012  F01C         	movff	?___fltol,LEDarray_disp_bin@number
   366   00083C  C013  F01D         	movff	?___fltol+1,LEDarray_disp_bin@number+1
   367   000840  EC5C  F004         	call	_LEDarray_disp_bin	;wreg free
   368   000844                     
   369                           ;main.c: 37:         if(time >= 5 && time <= 19){
   370   000844  C03D  F012         	movff	main@time,___flge@ff1
   371   000848  C03E  F013         	movff	main@time+1,___flge@ff1+1
   372   00084C  C03F  F014         	movff	main@time+2,___flge@ff1+2
   373   000850  C040  F015         	movff	main@time+3,___flge@ff1+3
   374   000854  0E00               	movlw	0
   375   000856  6E16               	movwf	___flge@ff2^0,c
   376   000858  0E00               	movlw	0
   377   00085A  6E17               	movwf	(___flge@ff2+1)^0,c
   378   00085C  0EA0               	movlw	160
   379   00085E  6E18               	movwf	(___flge@ff2+2)^0,c
   380   000860  0E40               	movlw	64
   381   000862  6E19               	movwf	(___flge@ff2+3)^0,c
   382   000864  EC74  F003         	call	___flge	;wreg free
   383   000868  A0D8               	btfss	status,0,c
   384   00086A  EF39  F004         	goto	u1371
   385   00086E  EF3B  F004         	goto	u1370
   386   000872                     u1371:
   387   000872  EF57  F004         	goto	l90
   388   000876                     u1370:
   389   000876  0E00               	movlw	0
   390   000878  6E12               	movwf	___flge@ff1^0,c
   391   00087A  0E00               	movlw	0
   392   00087C  6E13               	movwf	(___flge@ff1+1)^0,c
   393   00087E  0E98               	movlw	152
   394   000880  6E14               	movwf	(___flge@ff1+2)^0,c
   395   000882  0E41               	movlw	65
   396   000884  6E15               	movwf	(___flge@ff1+3)^0,c
   397   000886  C03D  F016         	movff	main@time,___flge@ff2
   398   00088A  C03E  F017         	movff	main@time+1,___flge@ff2+1
   399   00088E  C03F  F018         	movff	main@time+2,___flge@ff2+2
   400   000892  C040  F019         	movff	main@time+3,___flge@ff2+3
   401   000896  EC74  F003         	call	___flge	;wreg free
   402   00089A  A0D8               	btfss	status,0,c
   403   00089C  EF52  F004         	goto	u1381
   404   0008A0  EF54  F004         	goto	u1380
   405   0008A4                     u1381:
   406   0008A4  EF57  F004         	goto	l90
   407   0008A8                     u1380:
   408   0008A8                     
   409                           ;main.c: 38:             LATHbits.LATH3 = 0;
   410   0008A8  9680               	bcf	128,3,c	;volatile
   411                           
   412                           ;main.c: 39:         }else{
   413   0008AA  EF08  F004         	goto	l1638
   414   0008AE                     l90:
   415                           
   416                           ;main.c: 40:             LATHbits.LATH3 = 1;
   417   0008AE  8680               	bsf	128,3,c	;volatile
   418   0008B0  EF08  F004         	goto	l1638
   419   0008B4  EF48  F000         	goto	start
   420   0008B8                     __end_of_main:
   421                           	callstack 0
   422                           
   423 ;; *************** function _get_hour *****************
   424 ;; Defined at:
   425 ;;		line 73 in file "timers.c"
   426 ;; Parameters:    Size  Location     Type
   427 ;;		None
   428 ;; Auto vars:     Size  Location     Type
   429 ;;		None
   430 ;; Return value:  Size  Location     Type
   431 ;;                  4   56[COMRAM] float 
   432 ;; Registers used:
   433 ;;		wreg, status,2, status,0, cstack
   434 ;; Tracked objects:
   435 ;;		On entry : 0/0
   436 ;;		On exit  : 0/0
   437 ;;		Unchanged: 0/0
   438 ;; Data sizes:     COMRAM   BANK0   BANK1   BANK2   BANK3   BANK4   BANK5   BANK6   BANK7   BANK8   BANK9  BANK10  BANK1
      +1  BANK12  BANK13
   439 ;;      Params:         4       0       0       0       0       0       0       0       0       0       0       0       
      +0       0       0
   440 ;;      Locals:         0       0       0       0       0       0       0       0       0       0       0       0       
      +0       0       0
   441 ;;      Temps:          0       0       0       0       0       0       0       0       0       0       0       0       
      +0       0       0
   442 ;;      Totals:         4       0       0       0       0       0       0       0       0       0       0       0       
      +0       0       0
   443 ;;Total ram usage:        4 bytes
   444 ;; Hardware stack levels used: 1
   445 ;; Hardware stack levels required when called: 4
   446 ;; This function calls:
   447 ;;		___fldiv
   448 ;;		___xxtofl
   449 ;; This function is called by:
   450 ;;		_main
   451 ;; This function uses a non-reentrant model
   452 ;;
   453                           
   454                           	psect	text1
   455   000A74                     __ptext1:
   456                           	callstack 0
   457   000A74                     _get_hour:
   458                           	callstack 26
   459   000A74                     
   460                           ;timers.c: 74:     return (float) time_counter/3600;
   461   000A74  C041  F012         	movff	_time_counter,___xxtofl@val
   462   000A78  C042  F013         	movff	_time_counter+1,___xxtofl@val+1
   463   000A7C  C043  F014         	movff	_time_counter+2,___xxtofl@val+2
   464   000A80  C044  F015         	movff	_time_counter+3,___xxtofl@val+3
   465   000A84  0E00               	movlw	0
   466   000A86  EC17  F002         	call	___xxtofl
   467   000A8A  C012  F020         	movff	?___xxtofl,___fldiv@b
   468   000A8E  C013  F021         	movff	?___xxtofl+1,___fldiv@b+1
   469   000A92  C014  F022         	movff	?___xxtofl+2,___fldiv@b+2
   470   000A96  C015  F023         	movff	?___xxtofl+3,___fldiv@b+3
   471   000A9A  0E00               	movlw	0
   472   000A9C  6E24               	movwf	___fldiv@a^0,c
   473   000A9E  0E00               	movlw	0
   474   000AA0  6E25               	movwf	(___fldiv@a+1)^0,c
   475   000AA2  0E61               	movlw	97
   476   000AA4  6E26               	movwf	(___fldiv@a+2)^0,c
   477   000AA6  0E45               	movlw	69
   478   000AA8  6E27               	movwf	(___fldiv@a+3)^0,c
   479   000AAA  EC4A  F000         	call	___fldiv	;wreg free
   480   000AAE  C020  F039         	movff	?___fldiv,?_get_hour
   481   000AB2  C021  F03A         	movff	?___fldiv+1,?_get_hour+1
   482   000AB6  C022  F03B         	movff	?___fldiv+2,?_get_hour+2
   483   000ABA  C023  F03C         	movff	?___fldiv+3,?_get_hour+3
   484   000ABE  0012               	return		;funcret
   485   000AC0                     __end_of_get_hour:
   486                           	callstack 0
   487                           
   488 ;; *************** function ___xxtofl *****************
   489 ;; Defined at:
   490 ;;		line 10 in file "C:\Program Files\Microchip\xc8\v2.40\pic\sources\c99\common\xxtofl.c"
   491 ;; Parameters:    Size  Location     Type
   492 ;;  sign            1    wreg     unsigned char 
   493 ;;  val             4   17[COMRAM] long 
   494 ;; Auto vars:     Size  Location     Type
   495 ;;  sign            1   25[COMRAM] unsigned char 
   496 ;;  arg             4   27[COMRAM] unsigned long 
   497 ;;  exp             1   26[COMRAM] unsigned char 
   498 ;; Return value:  Size  Location     Type
   499 ;;                  4   17[COMRAM] unsigned char 
   500 ;; Registers used:
   501 ;;		wreg, status,2, status,0
   502 ;; Tracked objects:
   503 ;;		On entry : 0/0
   504 ;;		On exit  : 0/0
   505 ;;		Unchanged: 0/0
   506 ;; Data sizes:     COMRAM   BANK0   BANK1   BANK2   BANK3   BANK4   BANK5   BANK6   BANK7   BANK8   BANK9  BANK10  BANK1
      +1  BANK12  BANK13
   507 ;;      Params:         4       0       0       0       0       0       0       0       0       0       0       0       
      +0       0       0
   508 ;;      Locals:         6       0       0       0       0       0       0       0       0       0       0       0       
      +0       0       0
   509 ;;      Temps:          4       0       0       0       0       0       0       0       0       0       0       0       
      +0       0       0
   510 ;;      Totals:        14       0       0       0       0       0       0       0       0       0       0       0       
      +0       0       0
   511 ;;Total ram usage:       14 bytes
   512 ;; Hardware stack levels used: 1
   513 ;; Hardware stack levels required when called: 3
   514 ;; This function calls:
   515 ;;		Nothing
   516 ;; This function is called by:
   517 ;;		_get_hour
   518 ;; This function uses a non-reentrant model
   519 ;;
   520                           
   521                           	psect	text2
   522   00042E                     __ptext2:
   523                           	callstack 0
   524   00042E                     ___xxtofl:
   525                           	callstack 26
   526                           
   527                           ;incstack = 0
   528                           ;___xxtofl@sign stored from wreg
   529   00042E  6E1A               	movwf	___xxtofl@sign^0,c
   530   000430  501A               	movf	___xxtofl@sign^0,w,c
   531   000432  B4D8               	btfsc	status,2,c
   532   000434  EF1E  F002         	goto	u981
   533   000438  EF20  F002         	goto	u980
   534   00043C                     u981:
   535   00043C  EF42  F002         	goto	l844
   536   000440                     u980:
   537   000440  BE15               	btfsc	(___xxtofl@val+3)^0,7,c
   538   000442  EF27  F002         	goto	u990
   539   000446  EF25  F002         	goto	u991
   540   00044A                     u991:
   541   00044A  EF42  F002         	goto	l844
   542   00044E                     u990:
   543   00044E  C012  F016         	movff	___xxtofl@val,??___xxtofl
   544   000452  C013  F017         	movff	___xxtofl@val+1,??___xxtofl+1
   545   000456  C014  F018         	movff	___xxtofl@val+2,??___xxtofl+2
   546   00045A  C015  F019         	movff	___xxtofl@val+3,??___xxtofl+3
   547   00045E  1E16               	comf	??___xxtofl^0,f,c
   548   000460  1E17               	comf	(??___xxtofl+1)^0,f,c
   549   000462  1E18               	comf	(??___xxtofl+2)^0,f,c
   550   000464  1E19               	comf	(??___xxtofl+3)^0,f,c
   551   000466  2A16               	incf	??___xxtofl^0,f,c
   552   000468  0E00               	movlw	0
   553   00046A  2217               	addwfc	(??___xxtofl+1)^0,f,c
   554   00046C  2218               	addwfc	(??___xxtofl+2)^0,f,c
   555   00046E  2219               	addwfc	(??___xxtofl+3)^0,f,c
   556   000470  C016  F01C         	movff	??___xxtofl,___xxtofl@arg
   557   000474  C017  F01D         	movff	??___xxtofl+1,___xxtofl@arg+1
   558   000478  C018  F01E         	movff	??___xxtofl+2,___xxtofl@arg+2
   559   00047C  C019  F01F         	movff	??___xxtofl+3,___xxtofl@arg+3
   560   000480  EF4A  F002         	goto	l1438
   561   000484                     l844:
   562   000484  C012  F01C         	movff	___xxtofl@val,___xxtofl@arg
   563   000488  C013  F01D         	movff	___xxtofl@val+1,___xxtofl@arg+1
   564   00048C  C014  F01E         	movff	___xxtofl@val+2,___xxtofl@arg+2
   565   000490  C015  F01F         	movff	___xxtofl@val+3,___xxtofl@arg+3
   566   000494                     l1438:
   567   000494  5012               	movf	___xxtofl@val^0,w,c
   568   000496  1013               	iorwf	(___xxtofl@val+1)^0,w,c
   569   000498  1014               	iorwf	(___xxtofl@val+2)^0,w,c
   570   00049A  1015               	iorwf	(___xxtofl@val+3)^0,w,c
   571   00049C  A4D8               	btfss	status,2,c
   572   00049E  EF53  F002         	goto	u1001
   573   0004A2  EF55  F002         	goto	u1000
   574   0004A6                     u1001:
   575   0004A6  EF5F  F002         	goto	l1444
   576   0004AA                     u1000:
   577   0004AA  0E00               	movlw	0
   578   0004AC  6E12               	movwf	?___xxtofl^0,c
   579   0004AE  0E00               	movlw	0
   580   0004B0  6E13               	movwf	(?___xxtofl+1)^0,c
   581   0004B2  0E00               	movlw	0
   582   0004B4  6E14               	movwf	(?___xxtofl+2)^0,c
   583   0004B6  0E00               	movlw	0
   584   0004B8  6E15               	movwf	(?___xxtofl+3)^0,c
   585   0004BA  EFF0  F002         	goto	l847
   586   0004BE                     l1444:
   587   0004BE  0E96               	movlw	150
   588   0004C0  6E1B               	movwf	___xxtofl@exp^0,c
   589   0004C2  EF69  F002         	goto	l1448
   590   0004C6                     l1446:
   591   0004C6  2A1B               	incf	___xxtofl@exp^0,f,c
   592   0004C8  90D8               	bcf	status,0,c
   593   0004CA  321F               	rrcf	(___xxtofl@arg+3)^0,f,c
   594   0004CC  321E               	rrcf	(___xxtofl@arg+2)^0,f,c
   595   0004CE  321D               	rrcf	(___xxtofl@arg+1)^0,f,c
   596   0004D0  321C               	rrcf	___xxtofl@arg^0,f,c
   597   0004D2                     l1448:
   598   0004D2  0E00               	movlw	0
   599   0004D4  141C               	andwf	___xxtofl@arg^0,w,c
   600   0004D6  6E16               	movwf	??___xxtofl^0,c
   601   0004D8  0E00               	movlw	0
   602   0004DA  141D               	andwf	(___xxtofl@arg+1)^0,w,c
   603   0004DC  6E17               	movwf	(??___xxtofl+1)^0,c
   604   0004DE  0E00               	movlw	0
   605   0004E0  141E               	andwf	(___xxtofl@arg+2)^0,w,c
   606   0004E2  6E18               	movwf	(??___xxtofl+2)^0,c
   607   0004E4  0EFE               	movlw	254
   608   0004E6  141F               	andwf	(___xxtofl@arg+3)^0,w,c
   609   0004E8  6E19               	movwf	(??___xxtofl+3)^0,c
   610   0004EA  5016               	movf	??___xxtofl^0,w,c
   611   0004EC  1017               	iorwf	(??___xxtofl+1)^0,w,c
   612   0004EE  1018               	iorwf	(??___xxtofl+2)^0,w,c
   613   0004F0  1019               	iorwf	(??___xxtofl+3)^0,w,c
   614   0004F2  A4D8               	btfss	status,2,c
   615   0004F4  EF7E  F002         	goto	u1011
   616   0004F8  EF80  F002         	goto	u1010
   617   0004FC                     u1011:
   618   0004FC  EF63  F002         	goto	l1446
   619   000500                     u1010:
   620   000500  EF8E  F002         	goto	l851
   621   000504                     l1450:
   622   000504  2A1B               	incf	___xxtofl@exp^0,f,c
   623   000506  0E01               	movlw	1
   624   000508  261C               	addwf	___xxtofl@arg^0,f,c
   625   00050A  0E00               	movlw	0
   626   00050C  221D               	addwfc	(___xxtofl@arg+1)^0,f,c
   627   00050E  221E               	addwfc	(___xxtofl@arg+2)^0,f,c
   628   000510  221F               	addwfc	(___xxtofl@arg+3)^0,f,c
   629   000512  90D8               	bcf	status,0,c
   630   000514  321F               	rrcf	(___xxtofl@arg+3)^0,f,c
   631   000516  321E               	rrcf	(___xxtofl@arg+2)^0,f,c
   632   000518  321D               	rrcf	(___xxtofl@arg+1)^0,f,c
   633   00051A  321C               	rrcf	___xxtofl@arg^0,f,c
   634   00051C                     l851:
   635   00051C  0E00               	movlw	0
   636   00051E  141C               	andwf	___xxtofl@arg^0,w,c
   637   000520  6E16               	movwf	??___xxtofl^0,c
   638   000522  0E00               	movlw	0
   639   000524  141D               	andwf	(___xxtofl@arg+1)^0,w,c
   640   000526  6E17               	movwf	(??___xxtofl+1)^0,c
   641   000528  0E00               	movlw	0
   642   00052A  141E               	andwf	(___xxtofl@arg+2)^0,w,c
   643   00052C  6E18               	movwf	(??___xxtofl+2)^0,c
   644   00052E  0EFF               	movlw	255
   645   000530  141F               	andwf	(___xxtofl@arg+3)^0,w,c
   646   000532  6E19               	movwf	(??___xxtofl+3)^0,c
   647   000534  5016               	movf	??___xxtofl^0,w,c
   648   000536  1017               	iorwf	(??___xxtofl+1)^0,w,c
   649   000538  1018               	iorwf	(??___xxtofl+2)^0,w,c
   650   00053A  1019               	iorwf	(??___xxtofl+3)^0,w,c
   651   00053C  A4D8               	btfss	status,2,c
   652   00053E  EFA3  F002         	goto	u1021
   653   000542  EFA5  F002         	goto	u1020
   654   000546                     u1021:
   655   000546  EF82  F002         	goto	l1450
   656   00054A                     u1020:
   657   00054A  EFAD  F002         	goto	l1458
   658   00054E                     l1456:
   659   00054E  061B               	decf	___xxtofl@exp^0,f,c
   660   000550  90D8               	bcf	status,0,c
   661   000552  361C               	rlcf	___xxtofl@arg^0,f,c
   662   000554  361D               	rlcf	(___xxtofl@arg+1)^0,f,c
   663   000556  361E               	rlcf	(___xxtofl@arg+2)^0,f,c
   664   000558  361F               	rlcf	(___xxtofl@arg+3)^0,f,c
   665   00055A                     l1458:
   666   00055A  BE1E               	btfsc	(___xxtofl@arg+2)^0,7,c
   667   00055C  EFB2  F002         	goto	u1031
   668   000560  EFB4  F002         	goto	u1030
   669   000564                     u1031:
   670   000564  EFBC  F002         	goto	l858
   671   000568                     u1030:
   672   000568  0E02               	movlw	2
   673   00056A  601B               	cpfslt	___xxtofl@exp^0,c
   674   00056C  EFBA  F002         	goto	u1041
   675   000570  EFBC  F002         	goto	u1040
   676   000574                     u1041:
   677   000574  EFA7  F002         	goto	l1456
   678   000578                     u1040:
   679   000578                     l858:
   680   000578  B01B               	btfsc	___xxtofl@exp^0,0,c
   681   00057A  EFC1  F002         	goto	u1051
   682   00057E  EFC3  F002         	goto	u1050
   683   000582                     u1051:
   684   000582  EFC4  F002         	goto	l1464
   685   000586                     u1050:
   686   000586  9E1E               	bcf	(___xxtofl@arg+2)^0,7,c
   687   000588                     l1464:
   688   000588  90D8               	bcf	status,0,c
   689   00058A  321B               	rrcf	___xxtofl@exp^0,f,c
   690   00058C  C01B  F016         	movff	___xxtofl@exp,??___xxtofl
   691   000590  6A17               	clrf	(??___xxtofl+1)^0,c
   692   000592  6A18               	clrf	(??___xxtofl+2)^0,c
   693   000594  6A19               	clrf	(??___xxtofl+3)^0,c
   694   000596  C016  F019         	movff	??___xxtofl,??___xxtofl+3
   695   00059A  6A18               	clrf	(??___xxtofl+2)^0,c
   696   00059C  6A17               	clrf	(??___xxtofl+1)^0,c
   697   00059E  6A16               	clrf	??___xxtofl^0,c
   698   0005A0  5016               	movf	??___xxtofl^0,w,c
   699   0005A2  121C               	iorwf	___xxtofl@arg^0,f,c
   700   0005A4  5017               	movf	(??___xxtofl+1)^0,w,c
   701   0005A6  121D               	iorwf	(___xxtofl@arg+1)^0,f,c
   702   0005A8  5018               	movf	(??___xxtofl+2)^0,w,c
   703   0005AA  121E               	iorwf	(___xxtofl@arg+2)^0,f,c
   704   0005AC  5019               	movf	(??___xxtofl+3)^0,w,c
   705   0005AE  121F               	iorwf	(___xxtofl@arg+3)^0,f,c
   706   0005B0  501A               	movf	___xxtofl@sign^0,w,c
   707   0005B2  B4D8               	btfsc	status,2,c
   708   0005B4  EFDE  F002         	goto	u1061
   709   0005B8  EFE0  F002         	goto	u1060
   710   0005BC                     u1061:
   711   0005BC  EFE8  F002         	goto	l1474
   712   0005C0                     u1060:
   713   0005C0  BE15               	btfsc	(___xxtofl@val+3)^0,7,c
   714   0005C2  EFE7  F002         	goto	u1070
   715   0005C6  EFE5  F002         	goto	u1071
   716   0005CA                     u1071:
   717   0005CA  EFE8  F002         	goto	l1474
   718   0005CE                     u1070:
   719   0005CE  8E1F               	bsf	(___xxtofl@arg+3)^0,7,c
   720   0005D0                     l1474:
   721   0005D0  C01C  F012         	movff	___xxtofl@arg,?___xxtofl
   722   0005D4  C01D  F013         	movff	___xxtofl@arg+1,?___xxtofl+1
   723   0005D8  C01E  F014         	movff	___xxtofl@arg+2,?___xxtofl+2
   724   0005DC  C01F  F015         	movff	___xxtofl@arg+3,?___xxtofl+3
   725   0005E0                     l847:
   726   0005E0  0012               	return		;funcret
   727   0005E2                     __end_of___xxtofl:
   728                           	callstack 0
   729                           
   730 ;; *************** function ___fldiv *****************
   731 ;; Defined at:
   732 ;;		line 11 in file "C:\Program Files\Microchip\xc8\v2.40\pic\sources\c99\common\sprcdiv.c"
   733 ;; Parameters:    Size  Location     Type
   734 ;;  b               4   31[COMRAM] unsigned char 
   735 ;;  a               4   35[COMRAM] unsigned char 
   736 ;; Auto vars:     Size  Location     Type
   737 ;;  grs             4   50[COMRAM] unsigned long 
   738 ;;  rem             4   43[COMRAM] unsigned long 
   739 ;;  new_exp         2   48[COMRAM] short 
   740 ;;  aexp            1   55[COMRAM] unsigned char 
   741 ;;  bexp            1   54[COMRAM] unsigned char 
   742 ;;  sign            1   47[COMRAM] unsigned char 
   743 ;; Return value:  Size  Location     Type
   744 ;;                  4   31[COMRAM] unsigned char 
   745 ;; Registers used:
   746 ;;		wreg, status,2, status,0
   747 ;; Tracked objects:
   748 ;;		On entry : 0/0
   749 ;;		On exit  : 0/0
   750 ;;		Unchanged: 0/0
   751 ;; Data sizes:     COMRAM   BANK0   BANK1   BANK2   BANK3   BANK4   BANK5   BANK6   BANK7   BANK8   BANK9  BANK10  BANK1
      +1  BANK12  BANK13
   752 ;;      Params:         8       0       0       0       0       0       0       0       0       0       0       0       
      +0       0       0
   753 ;;      Locals:        13       0       0       0       0       0       0       0       0       0       0       0       
      +0       0       0
   754 ;;      Temps:          4       0       0       0       0       0       0       0       0       0       0       0       
      +0       0       0
   755 ;;      Totals:        25       0       0       0       0       0       0       0       0       0       0       0       
      +0       0       0
   756 ;;Total ram usage:       25 bytes
   757 ;; Hardware stack levels used: 1
   758 ;; Hardware stack levels required when called: 3
   759 ;; This function calls:
   760 ;;		Nothing
   761 ;; This function is called by:
   762 ;;		_get_hour
   763 ;; This function uses a non-reentrant model
   764 ;;
   765                           
   766                           	psect	text3
   767   000094                     __ptext3:
   768                           	callstack 0
   769   000094                     ___fldiv:
   770                           	callstack 26
   771   000094  5023               	movf	(___fldiv@b+3)^0,w,c
   772   000096  0B80               	andlw	128
   773   000098  6E30               	movwf	___fldiv@sign^0,c
   774   00009A  5023               	movf	(___fldiv@b+3)^0,w,c
   775   00009C  2423               	addwf	(___fldiv@b+3)^0,w,c
   776   00009E  6E37               	movwf	___fldiv@bexp^0,c
   777   0000A0  AE22               	btfss	(___fldiv@b+2)^0,7,c
   778   0000A2  EF55  F000         	goto	u751
   779   0000A6  EF57  F000         	goto	u750
   780   0000AA                     u751:
   781   0000AA  EF58  F000         	goto	l1300
   782   0000AE                     u750:
   783   0000AE  8037               	bsf	___fldiv@bexp^0,0,c
   784   0000B0                     l1300:
   785   0000B0  5037               	movf	___fldiv@bexp^0,w,c
   786   0000B2  B4D8               	btfsc	status,2,c
   787   0000B4  EF5E  F000         	goto	u761
   788   0000B8  EF60  F000         	goto	u760
   789   0000BC                     u761:
   790   0000BC  EF75  F000         	goto	l1310
   791   0000C0                     u760:
   792   0000C0  2837               	incf	___fldiv@bexp^0,w,c
   793   0000C2  A4D8               	btfss	status,2,c
   794   0000C4  EF66  F000         	goto	u771
   795   0000C8  EF68  F000         	goto	u770
   796   0000CC                     u771:
   797   0000CC  EF70  F000         	goto	l1306
   798   0000D0                     u770:
   799   0000D0  0E00               	movlw	0
   800   0000D2  6E20               	movwf	___fldiv@b^0,c
   801   0000D4  0E00               	movlw	0
   802   0000D6  6E21               	movwf	(___fldiv@b+1)^0,c
   803   0000D8  0E00               	movlw	0
   804   0000DA  6E22               	movwf	(___fldiv@b+2)^0,c
   805   0000DC  0E00               	movlw	0
   806   0000DE  6E23               	movwf	(___fldiv@b+3)^0,c
   807   0000E0                     l1306:
   808   0000E0  8E22               	bsf	(___fldiv@b+2)^0,7,c
   809   0000E2  0E00               	movlw	0
   810   0000E4  6E23               	movwf	(___fldiv@b+3)^0,c
   811   0000E6  EF7D  F000         	goto	l1312
   812   0000EA                     l1310:
   813   0000EA  0E00               	movlw	0
   814   0000EC  6E20               	movwf	___fldiv@b^0,c
   815   0000EE  0E00               	movlw	0
   816   0000F0  6E21               	movwf	(___fldiv@b+1)^0,c
   817   0000F2  0E00               	movlw	0
   818   0000F4  6E22               	movwf	(___fldiv@b+2)^0,c
   819   0000F6  0E00               	movlw	0
   820   0000F8  6E23               	movwf	(___fldiv@b+3)^0,c
   821   0000FA                     l1312:
   822   0000FA  5027               	movf	(___fldiv@a+3)^0,w,c
   823   0000FC  0B80               	andlw	128
   824   0000FE  1A30               	xorwf	___fldiv@sign^0,f,c
   825   000100  5027               	movf	(___fldiv@a+3)^0,w,c
   826   000102  2427               	addwf	(___fldiv@a+3)^0,w,c
   827   000104  6E38               	movwf	___fldiv@aexp^0,c
   828   000106  AE26               	btfss	(___fldiv@a+2)^0,7,c
   829   000108  EF88  F000         	goto	u781
   830   00010C  EF8A  F000         	goto	u780
   831   000110                     u781:
   832   000110  EF8B  F000         	goto	l1320
   833   000114                     u780:
   834   000114  8038               	bsf	___fldiv@aexp^0,0,c
   835   000116                     l1320:
   836   000116  5038               	movf	___fldiv@aexp^0,w,c
   837   000118  B4D8               	btfsc	status,2,c
   838   00011A  EF91  F000         	goto	u791
   839   00011E  EF93  F000         	goto	u790
   840   000122                     u791:
   841   000122  EFA8  F000         	goto	l1330
   842   000126                     u790:
   843   000126  2838               	incf	___fldiv@aexp^0,w,c
   844   000128  A4D8               	btfss	status,2,c
   845   00012A  EF99  F000         	goto	u801
   846   00012E  EF9B  F000         	goto	u800
   847   000132                     u801:
   848   000132  EFA3  F000         	goto	l1326
   849   000136                     u800:
   850   000136  0E00               	movlw	0
   851   000138  6E24               	movwf	___fldiv@a^0,c
   852   00013A  0E00               	movlw	0
   853   00013C  6E25               	movwf	(___fldiv@a+1)^0,c
   854   00013E  0E00               	movlw	0
   855   000140  6E26               	movwf	(___fldiv@a+2)^0,c
   856   000142  0E00               	movlw	0
   857   000144  6E27               	movwf	(___fldiv@a+3)^0,c
   858   000146                     l1326:
   859   000146  8E26               	bsf	(___fldiv@a+2)^0,7,c
   860   000148  0E00               	movlw	0
   861   00014A  6E27               	movwf	(___fldiv@a+3)^0,c
   862   00014C  EFB0  F000         	goto	l1332
   863   000150                     l1330:
   864   000150  0E00               	movlw	0
   865   000152  6E24               	movwf	___fldiv@a^0,c
   866   000154  0E00               	movlw	0
   867   000156  6E25               	movwf	(___fldiv@a+1)^0,c
   868   000158  0E00               	movlw	0
   869   00015A  6E26               	movwf	(___fldiv@a+2)^0,c
   870   00015C  0E00               	movlw	0
   871   00015E  6E27               	movwf	(___fldiv@a+3)^0,c
   872   000160                     l1332:
   873   000160  5024               	movf	___fldiv@a^0,w,c
   874   000162  1025               	iorwf	(___fldiv@a+1)^0,w,c
   875   000164  1026               	iorwf	(___fldiv@a+2)^0,w,c
   876   000166  1027               	iorwf	(___fldiv@a+3)^0,w,c
   877   000168  A4D8               	btfss	status,2,c
   878   00016A  EFB9  F000         	goto	u811
   879   00016E  EFBB  F000         	goto	u810
   880   000172                     u811:
   881   000172  EFD3  F000         	goto	l1344
   882   000176                     u810:
   883   000176  0E00               	movlw	0
   884   000178  6E20               	movwf	___fldiv@b^0,c
   885   00017A  0E00               	movlw	0
   886   00017C  6E21               	movwf	(___fldiv@b+1)^0,c
   887   00017E  0E00               	movlw	0
   888   000180  6E22               	movwf	(___fldiv@b+2)^0,c
   889   000182  0E00               	movlw	0
   890   000184  6E23               	movwf	(___fldiv@b+3)^0,c
   891   000186  0E80               	movlw	128
   892   000188  1222               	iorwf	(___fldiv@b+2)^0,f,c
   893   00018A  0E7F               	movlw	127
   894   00018C  1223               	iorwf	(___fldiv@b+3)^0,f,c
   895   00018E                     l1338:
   896   00018E  5030               	movf	___fldiv@sign^0,w,c
   897   000190  1223               	iorwf	(___fldiv@b+3)^0,f,c
   898   000192  C020  F020         	movff	___fldiv@b,?___fldiv
   899   000196  C021  F021         	movff	___fldiv@b+1,?___fldiv+1
   900   00019A  C022  F022         	movff	___fldiv@b+2,?___fldiv+2
   901   00019E  C023  F023         	movff	___fldiv@b+3,?___fldiv+3
   902   0001A2  EF16  F002         	goto	l771
   903   0001A6                     l1344:
   904   0001A6  5037               	movf	___fldiv@bexp^0,w,c
   905   0001A8  A4D8               	btfss	status,2,c
   906   0001AA  EFD9  F000         	goto	u821
   907   0001AE  EFDB  F000         	goto	u820
   908   0001B2                     u821:
   909   0001B2  EFE5  F000         	goto	l1352
   910   0001B6                     u820:
   911   0001B6  0E00               	movlw	0
   912   0001B8  6E20               	movwf	?___fldiv^0,c
   913   0001BA  0E00               	movlw	0
   914   0001BC  6E21               	movwf	(?___fldiv+1)^0,c
   915   0001BE  0E00               	movlw	0
   916   0001C0  6E22               	movwf	(?___fldiv+2)^0,c
   917   0001C2  0E00               	movlw	0
   918   0001C4  6E23               	movwf	(?___fldiv+3)^0,c
   919   0001C6  EF16  F002         	goto	l771
   920   0001CA                     l1352:
   921   0001CA  5038               	movf	___fldiv@aexp^0,w,c
   922   0001CC  C037  F028         	movff	___fldiv@bexp,??___fldiv
   923   0001D0  6A29               	clrf	(??___fldiv+1)^0,c
   924   0001D2  5E28               	subwf	??___fldiv^0,f,c
   925   0001D4  0E00               	movlw	0
   926   0001D6  5A29               	subwfb	(??___fldiv+1)^0,f,c
   927   0001D8  0E7F               	movlw	127
   928   0001DA  2428               	addwf	??___fldiv^0,w,c
   929   0001DC  6E31               	movwf	___fldiv@new_exp^0,c
   930   0001DE  0E00               	movlw	0
   931   0001E0  2029               	addwfc	(??___fldiv+1)^0,w,c
   932   0001E2  6E32               	movwf	(___fldiv@new_exp+1)^0,c
   933   0001E4  C020  F02C         	movff	___fldiv@b,___fldiv@rem
   934   0001E8  C021  F02D         	movff	___fldiv@b+1,___fldiv@rem+1
   935   0001EC  C022  F02E         	movff	___fldiv@b+2,___fldiv@rem+2
   936   0001F0  C023  F02F         	movff	___fldiv@b+3,___fldiv@rem+3
   937   0001F4  0E00               	movlw	0
   938   0001F6  6E20               	movwf	___fldiv@b^0,c
   939   0001F8  0E00               	movlw	0
   940   0001FA  6E21               	movwf	(___fldiv@b+1)^0,c
   941   0001FC  0E00               	movlw	0
   942   0001FE  6E22               	movwf	(___fldiv@b+2)^0,c
   943   000200  0E00               	movlw	0
   944   000202  6E23               	movwf	(___fldiv@b+3)^0,c
   945   000204  0E00               	movlw	0
   946   000206  6E33               	movwf	___fldiv@grs^0,c
   947   000208  0E00               	movlw	0
   948   00020A  6E34               	movwf	(___fldiv@grs+1)^0,c
   949   00020C  0E00               	movlw	0
   950   00020E  6E35               	movwf	(___fldiv@grs+2)^0,c
   951   000210  0E00               	movlw	0
   952   000212  6E36               	movwf	(___fldiv@grs+3)^0,c
   953   000214  0E00               	movlw	0
   954   000216  6E38               	movwf	___fldiv@aexp^0,c
   955   000218  EF46  F001         	goto	l773
   956   00021C                     l1362:
   957   00021C  5038               	movf	___fldiv@aexp^0,w,c
   958   00021E  B4D8               	btfsc	status,2,c
   959   000220  EF14  F001         	goto	u831
   960   000224  EF16  F001         	goto	u830
   961   000228                     u831:
   962   000228  EF2D  F001         	goto	l1370
   963   00022C                     u830:
   964   00022C  90D8               	bcf	status,0,c
   965   00022E  362C               	rlcf	___fldiv@rem^0,f,c
   966   000230  362D               	rlcf	(___fldiv@rem+1)^0,f,c
   967   000232  362E               	rlcf	(___fldiv@rem+2)^0,f,c
   968   000234  362F               	rlcf	(___fldiv@rem+3)^0,f,c
   969   000236  90D8               	bcf	status,0,c
   970   000238  3620               	rlcf	___fldiv@b^0,f,c
   971   00023A  3621               	rlcf	(___fldiv@b+1)^0,f,c
   972   00023C  3622               	rlcf	(___fldiv@b+2)^0,f,c
   973   00023E  3623               	rlcf	(___fldiv@b+3)^0,f,c
   974   000240  AE36               	btfss	(___fldiv@grs+3)^0,7,c
   975   000242  EF25  F001         	goto	u841
   976   000246  EF27  F001         	goto	u840
   977   00024A                     u841:
   978   00024A  EF28  F001         	goto	l776
   979   00024E                     u840:
   980   00024E  8020               	bsf	___fldiv@b^0,0,c
   981   000250                     l776:
   982   000250  90D8               	bcf	status,0,c
   983   000252  3633               	rlcf	___fldiv@grs^0,f,c
   984   000254  3634               	rlcf	(___fldiv@grs+1)^0,f,c
   985   000256  3635               	rlcf	(___fldiv@grs+2)^0,f,c
   986   000258  3636               	rlcf	(___fldiv@grs+3)^0,f,c
   987   00025A                     l1370:
   988   00025A  5024               	movf	___fldiv@a^0,w,c
   989   00025C  5C2C               	subwf	___fldiv@rem^0,w,c
   990   00025E  5025               	movf	(___fldiv@a+1)^0,w,c
   991   000260  582D               	subwfb	(___fldiv@rem+1)^0,w,c
   992   000262  5026               	movf	(___fldiv@a+2)^0,w,c
   993   000264  582E               	subwfb	(___fldiv@rem+2)^0,w,c
   994   000266  5027               	movf	(___fldiv@a+3)^0,w,c
   995   000268  582F               	subwfb	(___fldiv@rem+3)^0,w,c
   996   00026A  A0D8               	btfss	status,0,c
   997   00026C  EF3A  F001         	goto	u851
   998   000270  EF3C  F001         	goto	u850
   999   000274                     u851:
  1000   000274  EF45  F001         	goto	l1376
  1001   000278                     u850:
  1002   000278  8C36               	bsf	(___fldiv@grs+3)^0,6,c
  1003   00027A  5024               	movf	___fldiv@a^0,w,c
  1004   00027C  5E2C               	subwf	___fldiv@rem^0,f,c
  1005   00027E  5025               	movf	(___fldiv@a+1)^0,w,c
  1006   000280  5A2D               	subwfb	(___fldiv@rem+1)^0,f,c
  1007   000282  5026               	movf	(___fldiv@a+2)^0,w,c
  1008   000284  5A2E               	subwfb	(___fldiv@rem+2)^0,f,c
  1009   000286  5027               	movf	(___fldiv@a+3)^0,w,c
  1010   000288  5A2F               	subwfb	(___fldiv@rem+3)^0,f,c
  1011   00028A                     l1376:
  1012   00028A  2A38               	incf	___fldiv@aexp^0,f,c
  1013   00028C                     l773:
  1014   00028C  0E19               	movlw	25
  1015   00028E  6438               	cpfsgt	___fldiv@aexp^0,c
  1016   000290  EF4C  F001         	goto	u861
  1017   000294  EF4E  F001         	goto	u860
  1018   000298                     u861:
  1019   000298  EF0E  F001         	goto	l1362
  1020   00029C                     u860:
  1021   00029C  502C               	movf	___fldiv@rem^0,w,c
  1022   00029E  102D               	iorwf	(___fldiv@rem+1)^0,w,c
  1023   0002A0  102E               	iorwf	(___fldiv@rem+2)^0,w,c
  1024   0002A2  102F               	iorwf	(___fldiv@rem+3)^0,w,c
  1025   0002A4  B4D8               	btfsc	status,2,c
  1026   0002A6  EF57  F001         	goto	u871
  1027   0002AA  EF59  F001         	goto	u870
  1028   0002AE                     u871:
  1029   0002AE  EF71  F001         	goto	l1388
  1030   0002B2                     u870:
  1031   0002B2  8033               	bsf	___fldiv@grs^0,0,c
  1032   0002B4  EF71  F001         	goto	l1388
  1033   0002B8                     l1382:
  1034   0002B8  90D8               	bcf	status,0,c
  1035   0002BA  3620               	rlcf	___fldiv@b^0,f,c
  1036   0002BC  3621               	rlcf	(___fldiv@b+1)^0,f,c
  1037   0002BE  3622               	rlcf	(___fldiv@b+2)^0,f,c
  1038   0002C0  3623               	rlcf	(___fldiv@b+3)^0,f,c
  1039   0002C2  AE36               	btfss	(___fldiv@grs+3)^0,7,c
  1040   0002C4  EF66  F001         	goto	u881
  1041   0002C8  EF68  F001         	goto	u880
  1042   0002CC                     u881:
  1043   0002CC  EF69  F001         	goto	l782
  1044   0002D0                     u880:
  1045   0002D0  8020               	bsf	___fldiv@b^0,0,c
  1046   0002D2                     l782:
  1047   0002D2  90D8               	bcf	status,0,c
  1048   0002D4  3633               	rlcf	___fldiv@grs^0,f,c
  1049   0002D6  3634               	rlcf	(___fldiv@grs+1)^0,f,c
  1050   0002D8  3635               	rlcf	(___fldiv@grs+2)^0,f,c
  1051   0002DA  3636               	rlcf	(___fldiv@grs+3)^0,f,c
  1052   0002DC  0631               	decf	___fldiv@new_exp^0,f,c
  1053   0002DE  A0D8               	btfss	status,0,c
  1054   0002E0  0632               	decf	(___fldiv@new_exp+1)^0,f,c
  1055   0002E2                     l1388:
  1056   0002E2  AE22               	btfss	(___fldiv@b+2)^0,7,c
  1057   0002E4  EF76  F001         	goto	u891
  1058   0002E8  EF78  F001         	goto	u890
  1059   0002EC                     u891:
  1060   0002EC  EF5C  F001         	goto	l1382
  1061   0002F0                     u890:
  1062   0002F0  0E00               	movlw	0
  1063   0002F2  6E38               	movwf	___fldiv@aexp^0,c
  1064   0002F4  AE36               	btfss	(___fldiv@grs+3)^0,7,c
  1065   0002F6  EF7F  F001         	goto	u901
  1066   0002FA  EF81  F001         	goto	u900
  1067   0002FE                     u901:
  1068   0002FE  EFA5  F001         	goto	l784
  1069   000302                     u900:
  1070   000302  0EFF               	movlw	255
  1071   000304  1433               	andwf	___fldiv@grs^0,w,c
  1072   000306  6E28               	movwf	??___fldiv^0,c
  1073   000308  0EFF               	movlw	255
  1074   00030A  1434               	andwf	(___fldiv@grs+1)^0,w,c
  1075   00030C  6E29               	movwf	(??___fldiv+1)^0,c
  1076   00030E  0EFF               	movlw	255
  1077   000310  1435               	andwf	(___fldiv@grs+2)^0,w,c
  1078   000312  6E2A               	movwf	(??___fldiv+2)^0,c
  1079   000314  0E7F               	movlw	127
  1080   000316  1436               	andwf	(___fldiv@grs+3)^0,w,c
  1081   000318  6E2B               	movwf	(??___fldiv+3)^0,c
  1082   00031A  5028               	movf	??___fldiv^0,w,c
  1083   00031C  1029               	iorwf	(??___fldiv+1)^0,w,c
  1084   00031E  102A               	iorwf	(??___fldiv+2)^0,w,c
  1085   000320  102B               	iorwf	(??___fldiv+3)^0,w,c
  1086   000322  B4D8               	btfsc	status,2,c
  1087   000324  EF96  F001         	goto	u911
  1088   000328  EF98  F001         	goto	u910
  1089   00032C                     u911:
  1090   00032C  EF9C  F001         	goto	l785
  1091   000330                     u910:
  1092   000330                     l1396:
  1093   000330  0E01               	movlw	1
  1094   000332  6E38               	movwf	___fldiv@aexp^0,c
  1095   000334  EFA5  F001         	goto	l784
  1096   000338                     l785:
  1097   000338  A020               	btfss	___fldiv@b^0,0,c
  1098   00033A  EFA1  F001         	goto	u921
  1099   00033E  EFA3  F001         	goto	u920
  1100   000342                     u921:
  1101   000342  EFA5  F001         	goto	l784
  1102   000346                     u920:
  1103   000346  EF98  F001         	goto	l1396
  1104   00034A                     l784:
  1105   00034A  5038               	movf	___fldiv@aexp^0,w,c
  1106   00034C  B4D8               	btfsc	status,2,c
  1107   00034E  EFAB  F001         	goto	u931
  1108   000352  EFAD  F001         	goto	u930
  1109   000356                     u931:
  1110   000356  EFD1  F001         	goto	l1408
  1111   00035A                     u930:
  1112   00035A  0E01               	movlw	1
  1113   00035C  2620               	addwf	___fldiv@b^0,f,c
  1114   00035E  0E00               	movlw	0
  1115   000360  2221               	addwfc	(___fldiv@b+1)^0,f,c
  1116   000362  2222               	addwfc	(___fldiv@b+2)^0,f,c
  1117   000364  2223               	addwfc	(___fldiv@b+3)^0,f,c
  1118   000366  A023               	btfss	(___fldiv@b+3)^0,0,c
  1119   000368  EFB8  F001         	goto	u941
  1120   00036C  EFBA  F001         	goto	u940
  1121   000370                     u941:
  1122   000370  EFD1  F001         	goto	l1408
  1123   000374                     u940:
  1124   000374  C020  F028         	movff	___fldiv@b,??___fldiv
  1125   000378  C021  F029         	movff	___fldiv@b+1,??___fldiv+1
  1126   00037C  C022  F02A         	movff	___fldiv@b+2,??___fldiv+2
  1127   000380  C023  F02B         	movff	___fldiv@b+3,??___fldiv+3
  1128   000384  342B               	rlcf	(??___fldiv+3)^0,w,c
  1129   000386  322B               	rrcf	(??___fldiv+3)^0,f,c
  1130   000388  322A               	rrcf	(??___fldiv+2)^0,f,c
  1131   00038A  3229               	rrcf	(??___fldiv+1)^0,f,c
  1132   00038C  3228               	rrcf	??___fldiv^0,f,c
  1133   00038E  C028  F020         	movff	??___fldiv,___fldiv@b
  1134   000392  C029  F021         	movff	??___fldiv+1,___fldiv@b+1
  1135   000396  C02A  F022         	movff	??___fldiv+2,___fldiv@b+2
  1136   00039A  C02B  F023         	movff	??___fldiv+3,___fldiv@b+3
  1137   00039E  4A31               	infsnz	___fldiv@new_exp^0,f,c
  1138   0003A0  2A32               	incf	(___fldiv@new_exp+1)^0,f,c
  1139   0003A2                     l1408:
  1140   0003A2  BE32               	btfsc	(___fldiv@new_exp+1)^0,7,c
  1141   0003A4  EFDC  F001         	goto	u951
  1142   0003A8  5032               	movf	(___fldiv@new_exp+1)^0,w,c
  1143   0003AA  E108               	bnz	u950
  1144   0003AC  2831               	incf	___fldiv@new_exp^0,w,c
  1145   0003AE  A0D8               	btfss	status,0,c
  1146   0003B0  EFDC  F001         	goto	u951
  1147   0003B4  EFDE  F001         	goto	u950
  1148   0003B8                     u951:
  1149   0003B8  EFE9  F001         	goto	l1412
  1150   0003BC                     u950:
  1151   0003BC  0E00               	movlw	0
  1152   0003BE  6E32               	movwf	(___fldiv@new_exp+1)^0,c
  1153   0003C0  6831               	setf	___fldiv@new_exp^0,c
  1154   0003C2  0E00               	movlw	0
  1155   0003C4  6E20               	movwf	___fldiv@b^0,c
  1156   0003C6  0E00               	movlw	0
  1157   0003C8  6E21               	movwf	(___fldiv@b+1)^0,c
  1158   0003CA  0E00               	movlw	0
  1159   0003CC  6E22               	movwf	(___fldiv@b+2)^0,c
  1160   0003CE  0E00               	movlw	0
  1161   0003D0  6E23               	movwf	(___fldiv@b+3)^0,c
  1162   0003D2                     l1412:
  1163   0003D2  BE32               	btfsc	(___fldiv@new_exp+1)^0,7,c
  1164   0003D4  EFF6  F001         	goto	u960
  1165   0003D8  5032               	movf	(___fldiv@new_exp+1)^0,w,c
  1166   0003DA  E106               	bnz	u961
  1167   0003DC  0431               	decf	___fldiv@new_exp^0,w,c
  1168   0003DE  B0D8               	btfsc	status,0,c
  1169   0003E0  EFF4  F001         	goto	u961
  1170   0003E4  EFF6  F001         	goto	u960
  1171   0003E8                     u961:
  1172   0003E8  EF04  F002         	goto	l1416
  1173   0003EC                     u960:
  1174   0003EC  0E00               	movlw	0
  1175   0003EE  6E32               	movwf	(___fldiv@new_exp+1)^0,c
  1176   0003F0  0E00               	movlw	0
  1177   0003F2  6E31               	movwf	___fldiv@new_exp^0,c
  1178   0003F4  0E00               	movlw	0
  1179   0003F6  6E20               	movwf	___fldiv@b^0,c
  1180   0003F8  0E00               	movlw	0
  1181   0003FA  6E21               	movwf	(___fldiv@b+1)^0,c
  1182   0003FC  0E00               	movlw	0
  1183   0003FE  6E22               	movwf	(___fldiv@b+2)^0,c
  1184   000400  0E00               	movlw	0
  1185   000402  6E23               	movwf	(___fldiv@b+3)^0,c
  1186   000404  0E00               	movlw	0
  1187   000406  6E30               	movwf	___fldiv@sign^0,c
  1188   000408                     l1416:
  1189   000408  C031  F037         	movff	___fldiv@new_exp,___fldiv@bexp
  1190   00040C  A037               	btfss	___fldiv@bexp^0,0,c
  1191   00040E  EF0B  F002         	goto	u971
  1192   000412  EF0D  F002         	goto	u970
  1193   000416                     u971:
  1194   000416  EF10  F002         	goto	l1422
  1195   00041A                     u970:
  1196   00041A  8E22               	bsf	(___fldiv@b+2)^0,7,c
  1197   00041C  EF11  F002         	goto	l1424
  1198   000420                     l1422:
  1199   000420  9E22               	bcf	(___fldiv@b+2)^0,7,c
  1200   000422                     l1424:
  1201   000422  90D8               	bcf	status,0,c
  1202   000424  3037               	rrcf	___fldiv@bexp^0,w,c
  1203   000426  6E23               	movwf	(___fldiv@b+3)^0,c
  1204   000428  EFC7  F000         	goto	l1338
  1205   00042C                     l771:
  1206   00042C  0012               	return		;funcret
  1207   00042E                     __end_of___fldiv:
  1208                           	callstack 0
  1209                           
  1210 ;; *************** function ___fltol *****************
  1211 ;; Defined at:
  1212 ;;		line 43 in file "C:\Program Files\Microchip\xc8\v2.40\pic\sources\c99\common\fltol.c"
  1213 ;; Parameters:    Size  Location     Type
  1214 ;;  f1              4   17[COMRAM] unsigned char 
  1215 ;; Auto vars:     Size  Location     Type
  1216 ;;  exp1            1   26[COMRAM] unsigned char 
  1217 ;;  sign1           1   25[COMRAM] unsigned char 
  1218 ;; Return value:  Size  Location     Type
  1219 ;;                  4   17[COMRAM] long 
  1220 ;; Registers used:
  1221 ;;		wreg, status,2, status,0
  1222 ;; Tracked objects:
  1223 ;;		On entry : 0/0
  1224 ;;		On exit  : 0/0
  1225 ;;		Unchanged: 0/0
  1226 ;; Data sizes:     COMRAM   BANK0   BANK1   BANK2   BANK3   BANK4   BANK5   BANK6   BANK7   BANK8   BANK9  BANK10  BANK1
      +1  BANK12  BANK13
  1227 ;;      Params:         4       0       0       0       0       0       0       0       0       0       0       0       
      +0       0       0
  1228 ;;      Locals:         2       0       0       0       0       0       0       0       0       0       0       0       
      +0       0       0
  1229 ;;      Temps:          4       0       0       0       0       0       0       0       0       0       0       0       
      +0       0       0
  1230 ;;      Totals:        10       0       0       0       0       0       0       0       0       0       0       0       
      +0       0       0
  1231 ;;Total ram usage:       10 bytes
  1232 ;; Hardware stack levels used: 1
  1233 ;; Hardware stack levels required when called: 3
  1234 ;; This function calls:
  1235 ;;		Nothing
  1236 ;; This function is called by:
  1237 ;;		_main
  1238 ;; This function uses a non-reentrant model
  1239 ;;
  1240                           
  1241                           	psect	text4
  1242   0005E2                     __ptext4:
  1243                           	callstack 0
  1244   0005E2                     ___fltol:
  1245                           	callstack 27
  1246   0005E2  3414               	rlcf	(___fltol@f1+2)^0,w,c
  1247   0005E4  3415               	rlcf	(___fltol@f1+3)^0,w,c
  1248   0005E6  6E1B               	movwf	___fltol@exp1^0,c
  1249   0005E8  501B               	movf	___fltol@exp1^0,w,c
  1250   0005EA  A4D8               	btfss	status,2,c
  1251   0005EC  EFFA  F002         	goto	u1251
  1252   0005F0  EFFC  F002         	goto	u1250
  1253   0005F4                     u1251:
  1254   0005F4  EF06  F003         	goto	l1558
  1255   0005F8                     u1250:
  1256   0005F8                     l1554:
  1257   0005F8  0E00               	movlw	0
  1258   0005FA  6E12               	movwf	?___fltol^0,c
  1259   0005FC  0E00               	movlw	0
  1260   0005FE  6E13               	movwf	(?___fltol+1)^0,c
  1261   000600  0E00               	movlw	0
  1262   000602  6E14               	movwf	(?___fltol+2)^0,c
  1263   000604  0E00               	movlw	0
  1264   000606  6E15               	movwf	(?___fltol+3)^0,c
  1265   000608  EF73  F003         	goto	l486
  1266   00060C                     l1558:
  1267   00060C  C012  F016         	movff	___fltol@f1,??___fltol
  1268   000610  C013  F017         	movff	___fltol@f1+1,??___fltol+1
  1269   000614  C014  F018         	movff	___fltol@f1+2,??___fltol+2
  1270   000618  C015  F019         	movff	___fltol@f1+3,??___fltol+3
  1271   00061C  0E20               	movlw	32
  1272   00061E  EF16  F003         	goto	u1260
  1273   000622                     u1265:
  1274   000622  90D8               	bcf	status,0,c
  1275   000624  3219               	rrcf	(??___fltol+3)^0,f,c
  1276   000626  3218               	rrcf	(??___fltol+2)^0,f,c
  1277   000628  3217               	rrcf	(??___fltol+1)^0,f,c
  1278   00062A  3216               	rrcf	??___fltol^0,f,c
  1279   00062C                     u1260:
  1280   00062C  2EE8               	decfsz	wreg,f,c
  1281   00062E  EF11  F003         	goto	u1265
  1282   000632  5016               	movf	??___fltol^0,w,c
  1283   000634  6E1A               	movwf	___fltol@sign1^0,c
  1284   000636  8E14               	bsf	(___fltol@f1+2)^0,7,c
  1285   000638  0EFF               	movlw	255
  1286   00063A  1612               	andwf	___fltol@f1^0,f,c
  1287   00063C  0EFF               	movlw	255
  1288   00063E  1613               	andwf	(___fltol@f1+1)^0,f,c
  1289   000640  0EFF               	movlw	255
  1290   000642  1614               	andwf	(___fltol@f1+2)^0,f,c
  1291   000644  0E00               	movlw	0
  1292   000646  1615               	andwf	(___fltol@f1+3)^0,f,c
  1293   000648  0E96               	movlw	150
  1294   00064A  5E1B               	subwf	___fltol@exp1^0,f,c
  1295   00064C  BE1B               	btfsc	___fltol@exp1^0,7,c
  1296   00064E  EF2D  F003         	goto	u1270
  1297   000652  EF2B  F003         	goto	u1271
  1298   000656                     u1271:
  1299   000656  EF43  F003         	goto	l1578
  1300   00065A                     u1270:
  1301   00065A  501B               	movf	___fltol@exp1^0,w,c
  1302   00065C  0A80               	xorlw	128
  1303   00065E  0F97               	addlw	151
  1304   000660  B0D8               	btfsc	status,0,c
  1305   000662  EF35  F003         	goto	u1281
  1306   000666  EF37  F003         	goto	u1280
  1307   00066A                     u1281:
  1308   00066A  EF39  F003         	goto	l1574
  1309   00066E                     u1280:
  1310   00066E  EFFC  F002         	goto	l1554
  1311   000672                     l1574:
  1312   000672  90D8               	bcf	status,0,c
  1313   000674  3215               	rrcf	(___fltol@f1+3)^0,f,c
  1314   000676  3214               	rrcf	(___fltol@f1+2)^0,f,c
  1315   000678  3213               	rrcf	(___fltol@f1+1)^0,f,c
  1316   00067A  3212               	rrcf	___fltol@f1^0,f,c
  1317   00067C  3E1B               	incfsz	___fltol@exp1^0,f,c
  1318   00067E  EF39  F003         	goto	l1574
  1319   000682  EF5B  F003         	goto	l1588
  1320   000686                     l1578:
  1321   000686  0E1F               	movlw	31
  1322   000688  641B               	cpfsgt	___fltol@exp1^0,c
  1323   00068A  EF49  F003         	goto	u1291
  1324   00068E  EF4B  F003         	goto	u1290
  1325   000692                     u1291:
  1326   000692  EF53  F003         	goto	l1586
  1327   000696                     u1290:
  1328   000696  EFFC  F002         	goto	l1554
  1329   00069A                     l1584:
  1330   00069A  90D8               	bcf	status,0,c
  1331   00069C  3612               	rlcf	___fltol@f1^0,f,c
  1332   00069E  3613               	rlcf	(___fltol@f1+1)^0,f,c
  1333   0006A0  3614               	rlcf	(___fltol@f1+2)^0,f,c
  1334   0006A2  3615               	rlcf	(___fltol@f1+3)^0,f,c
  1335   0006A4  061B               	decf	___fltol@exp1^0,f,c
  1336   0006A6                     l1586:
  1337   0006A6  501B               	movf	___fltol@exp1^0,w,c
  1338   0006A8  A4D8               	btfss	status,2,c
  1339   0006AA  EF59  F003         	goto	u1301
  1340   0006AE  EF5B  F003         	goto	u1300
  1341   0006B2                     u1301:
  1342   0006B2  EF4D  F003         	goto	l1584
  1343   0006B6                     u1300:
  1344   0006B6                     l1588:
  1345   0006B6  501A               	movf	___fltol@sign1^0,w,c
  1346   0006B8  B4D8               	btfsc	status,2,c
  1347   0006BA  EF61  F003         	goto	u1311
  1348   0006BE  EF63  F003         	goto	u1310
  1349   0006C2                     u1311:
  1350   0006C2  EF6B  F003         	goto	l1592
  1351   0006C6                     u1310:
  1352   0006C6  1E15               	comf	(___fltol@f1+3)^0,f,c
  1353   0006C8  1E14               	comf	(___fltol@f1+2)^0,f,c
  1354   0006CA  1E13               	comf	(___fltol@f1+1)^0,f,c
  1355   0006CC  6C12               	negf	___fltol@f1^0,c
  1356   0006CE  0E00               	movlw	0
  1357   0006D0  2213               	addwfc	(___fltol@f1+1)^0,f,c
  1358   0006D2  2214               	addwfc	(___fltol@f1+2)^0,f,c
  1359   0006D4  2215               	addwfc	(___fltol@f1+3)^0,f,c
  1360   0006D6                     l1592:
  1361   0006D6  C012  F012         	movff	___fltol@f1,?___fltol
  1362   0006DA  C013  F013         	movff	___fltol@f1+1,?___fltol+1
  1363   0006DE  C014  F014         	movff	___fltol@f1+2,?___fltol+2
  1364   0006E2  C015  F015         	movff	___fltol@f1+3,?___fltol+3
  1365   0006E6                     l486:
  1366   0006E6  0012               	return		;funcret
  1367   0006E8                     __end_of___fltol:
  1368                           	callstack 0
  1369                           
  1370 ;; *************** function ___flge *****************
  1371 ;; Defined at:
  1372 ;;		line 4 in file "C:\Program Files\Microchip\xc8\v2.40\pic\sources\c99\common\flge.c"
  1373 ;; Parameters:    Size  Location     Type
  1374 ;;  ff1             4   17[COMRAM] long 
  1375 ;;  ff2             4   21[COMRAM] long 
  1376 ;; Auto vars:     Size  Location     Type
  1377 ;;		None
  1378 ;; Return value:  Size  Location     Type
  1379 ;;		None               void
  1380 ;; Registers used:
  1381 ;;		wreg, status,2, status,0
  1382 ;; Tracked objects:
  1383 ;;		On entry : 0/0
  1384 ;;		On exit  : 0/0
  1385 ;;		Unchanged: 0/0
  1386 ;; Data sizes:     COMRAM   BANK0   BANK1   BANK2   BANK3   BANK4   BANK5   BANK6   BANK7   BANK8   BANK9  BANK10  BANK1
      +1  BANK12  BANK13
  1387 ;;      Params:         8       0       0       0       0       0       0       0       0       0       0       0       
      +0       0       0
  1388 ;;      Locals:         0       0       0       0       0       0       0       0       0       0       0       0       
      +0       0       0
  1389 ;;      Temps:          4       0       0       0       0       0       0       0       0       0       0       0       
      +0       0       0
  1390 ;;      Totals:        12       0       0       0       0       0       0       0       0       0       0       0       
      +0       0       0
  1391 ;;Total ram usage:       12 bytes
  1392 ;; Hardware stack levels used: 1
  1393 ;; Hardware stack levels required when called: 3
  1394 ;; This function calls:
  1395 ;;		Nothing
  1396 ;; This function is called by:
  1397 ;;		_main
  1398 ;; This function uses a non-reentrant model
  1399 ;;
  1400                           
  1401                           	psect	text5
  1402   0006E8                     __ptext5:
  1403                           	callstack 0
  1404   0006E8                     ___flge:
  1405                           	callstack 27
  1406   0006E8  0E00               	movlw	0
  1407   0006EA  1412               	andwf	___flge@ff1^0,w,c
  1408   0006EC  6E1A               	movwf	??___flge^0,c
  1409   0006EE  0E00               	movlw	0
  1410   0006F0  1413               	andwf	(___flge@ff1+1)^0,w,c
  1411   0006F2  6E1B               	movwf	(??___flge+1)^0,c
  1412   0006F4  0E80               	movlw	128
  1413   0006F6  1414               	andwf	(___flge@ff1+2)^0,w,c
  1414   0006F8  6E1C               	movwf	(??___flge+2)^0,c
  1415   0006FA  0E7F               	movlw	127
  1416   0006FC  1415               	andwf	(___flge@ff1+3)^0,w,c
  1417   0006FE  6E1D               	movwf	(??___flge+3)^0,c
  1418   000700  501A               	movf	??___flge^0,w,c
  1419   000702  101B               	iorwf	(??___flge+1)^0,w,c
  1420   000704  101C               	iorwf	(??___flge+2)^0,w,c
  1421   000706  101D               	iorwf	(??___flge+3)^0,w,c
  1422   000708  A4D8               	btfss	status,2,c
  1423   00070A  EF89  F003         	goto	u1201
  1424   00070E  EF8B  F003         	goto	u1200
  1425   000712                     u1201:
  1426   000712  EF93  F003         	goto	l1534
  1427   000716                     u1200:
  1428   000716  0E00               	movlw	0
  1429   000718  6E12               	movwf	___flge@ff1^0,c
  1430   00071A  0E00               	movlw	0
  1431   00071C  6E13               	movwf	(___flge@ff1+1)^0,c
  1432   00071E  0E00               	movlw	0
  1433   000720  6E14               	movwf	(___flge@ff1+2)^0,c
  1434   000722  0E00               	movlw	0
  1435   000724  6E15               	movwf	(___flge@ff1+3)^0,c
  1436   000726                     l1534:
  1437   000726  0E00               	movlw	0
  1438   000728  1416               	andwf	___flge@ff2^0,w,c
  1439   00072A  6E1A               	movwf	??___flge^0,c
  1440   00072C  0E00               	movlw	0
  1441   00072E  1417               	andwf	(___flge@ff2+1)^0,w,c
  1442   000730  6E1B               	movwf	(??___flge+1)^0,c
  1443   000732  0E80               	movlw	128
  1444   000734  1418               	andwf	(___flge@ff2+2)^0,w,c
  1445   000736  6E1C               	movwf	(??___flge+2)^0,c
  1446   000738  0E7F               	movlw	127
  1447   00073A  1419               	andwf	(___flge@ff2+3)^0,w,c
  1448   00073C  6E1D               	movwf	(??___flge+3)^0,c
  1449   00073E  501A               	movf	??___flge^0,w,c
  1450   000740  101B               	iorwf	(??___flge+1)^0,w,c
  1451   000742  101C               	iorwf	(??___flge+2)^0,w,c
  1452   000744  101D               	iorwf	(??___flge+3)^0,w,c
  1453   000746  A4D8               	btfss	status,2,c
  1454   000748  EFA8  F003         	goto	u1211
  1455   00074C  EFAA  F003         	goto	u1210
  1456   000750                     u1211:
  1457   000750  EFB2  F003         	goto	l1538
  1458   000754                     u1210:
  1459   000754  0E00               	movlw	0
  1460   000756  6E16               	movwf	___flge@ff2^0,c
  1461   000758  0E00               	movlw	0
  1462   00075A  6E17               	movwf	(___flge@ff2+1)^0,c
  1463   00075C  0E00               	movlw	0
  1464   00075E  6E18               	movwf	(___flge@ff2+2)^0,c
  1465   000760  0E00               	movlw	0
  1466   000762  6E19               	movwf	(___flge@ff2+3)^0,c
  1467   000764                     l1538:
  1468   000764  AE15               	btfss	(___flge@ff1+3)^0,7,c
  1469   000766  EFB7  F003         	goto	u1221
  1470   00076A  EFB9  F003         	goto	u1220
  1471   00076E                     u1221:
  1472   00076E  EFC2  F003         	goto	l1542
  1473   000772                     u1220:
  1474   000772  6C12               	negf	___flge@ff1^0,c
  1475   000774  1E13               	comf	(___flge@ff1+1)^0,f,c
  1476   000776  B0D8               	btfsc	status,0,c
  1477   000778  2A13               	incf	(___flge@ff1+1)^0,f,c
  1478   00077A  1E14               	comf	(___flge@ff1+2)^0,f,c
  1479   00077C  B0D8               	btfsc	status,0,c
  1480   00077E  2A14               	incf	(___flge@ff1+2)^0,f,c
  1481   000780  0E80               	movlw	128
  1482   000782  5615               	subfwb	(___flge@ff1+3)^0,f,c
  1483   000784                     l1542:
  1484   000784  AE19               	btfss	(___flge@ff2+3)^0,7,c
  1485   000786  EFC7  F003         	goto	u1231
  1486   00078A  EFC9  F003         	goto	u1230
  1487   00078E                     u1231:
  1488   00078E  EFD2  F003         	goto	l454
  1489   000792                     u1230:
  1490   000792  6C16               	negf	___flge@ff2^0,c
  1491   000794  1E17               	comf	(___flge@ff2+1)^0,f,c
  1492   000796  B0D8               	btfsc	status,0,c
  1493   000798  2A17               	incf	(___flge@ff2+1)^0,f,c
  1494   00079A  1E18               	comf	(___flge@ff2+2)^0,f,c
  1495   00079C  B0D8               	btfsc	status,0,c
  1496   00079E  2A18               	incf	(___flge@ff2+2)^0,f,c
  1497   0007A0  0E80               	movlw	128
  1498   0007A2  5619               	subfwb	(___flge@ff2+3)^0,f,c
  1499   0007A4                     l454:
  1500   0007A4  0E00               	movlw	0
  1501   0007A6  1A12               	xorwf	___flge@ff1^0,f,c
  1502   0007A8  0E00               	movlw	0
  1503   0007AA  1A13               	xorwf	(___flge@ff1+1)^0,f,c
  1504   0007AC  0E00               	movlw	0
  1505   0007AE  1A14               	xorwf	(___flge@ff1+2)^0,f,c
  1506   0007B0  0E80               	movlw	128
  1507   0007B2  1A15               	xorwf	(___flge@ff1+3)^0,f,c
  1508   0007B4  0E00               	movlw	0
  1509   0007B6  1A16               	xorwf	___flge@ff2^0,f,c
  1510   0007B8  0E00               	movlw	0
  1511   0007BA  1A17               	xorwf	(___flge@ff2+1)^0,f,c
  1512   0007BC  0E00               	movlw	0
  1513   0007BE  1A18               	xorwf	(___flge@ff2+2)^0,f,c
  1514   0007C0  0E80               	movlw	128
  1515   0007C2  1A19               	xorwf	(___flge@ff2+3)^0,f,c
  1516   0007C4  5016               	movf	___flge@ff2^0,w,c
  1517   0007C6  5C12               	subwf	___flge@ff1^0,w,c
  1518   0007C8  5017               	movf	(___flge@ff2+1)^0,w,c
  1519   0007CA  5813               	subwfb	(___flge@ff1+1)^0,w,c
  1520   0007CC  5018               	movf	(___flge@ff2+2)^0,w,c
  1521   0007CE  5814               	subwfb	(___flge@ff1+2)^0,w,c
  1522   0007D0  5019               	movf	(___flge@ff2+3)^0,w,c
  1523   0007D2  5815               	subwfb	(___flge@ff1+3)^0,w,c
  1524   0007D4  B0D8               	btfsc	status,0,c
  1525   0007D6  EFEF  F003         	goto	u1241
  1526   0007DA  EFF1  F003         	goto	u1240
  1527   0007DE                     u1241:
  1528   0007DE  EFF4  F003         	goto	l1548
  1529   0007E2                     u1240:
  1530   0007E2  90D8               	bcf	status,0,c
  1531   0007E4  EFF5  F003         	goto	l459
  1532   0007E8                     l1548:
  1533   0007E8  80D8               	bsf	status,0,c
  1534   0007EA                     l459:
  1535   0007EA  0012               	return		;funcret
  1536   0007EC                     __end_of___flge:
  1537                           	callstack 0
  1538                           
  1539 ;; *************** function _Timer0_init *****************
  1540 ;; Defined at:
  1541 ;;		line 11 in file "timers.c"
  1542 ;; Parameters:    Size  Location     Type
  1543 ;;  init_test_mo    2   17[COMRAM] unsigned short 
  1544 ;; Auto vars:     Size  Location     Type
  1545 ;;		None
  1546 ;; Return value:  Size  Location     Type
  1547 ;;                  1    wreg      void 
  1548 ;; Registers used:
  1549 ;;		wreg, status,2, status,0
  1550 ;; Tracked objects:
  1551 ;;		On entry : 0/0
  1552 ;;		On exit  : 0/0
  1553 ;;		Unchanged: 0/0
  1554 ;; Data sizes:     COMRAM   BANK0   BANK1   BANK2   BANK3   BANK4   BANK5   BANK6   BANK7   BANK8   BANK9  BANK10  BANK1
      +1  BANK12  BANK13
  1555 ;;      Params:         2       0       0       0       0       0       0       0       0       0       0       0       
      +0       0       0
  1556 ;;      Locals:         0       0       0       0       0       0       0       0       0       0       0       0       
      +0       0       0
  1557 ;;      Temps:          0       0       0       0       0       0       0       0       0       0       0       0       
      +0       0       0
  1558 ;;      Totals:         2       0       0       0       0       0       0       0       0       0       0       0       
      +0       0       0
  1559 ;;Total ram usage:        2 bytes
  1560 ;; Hardware stack levels used: 1
  1561 ;; Hardware stack levels required when called: 3
  1562 ;; This function calls:
  1563 ;;		Nothing
  1564 ;; This function is called by:
  1565 ;;		_main
  1566 ;; This function uses a non-reentrant model
  1567 ;;
  1568                           
  1569                           	psect	text6
  1570   000AC0                     __ptext6:
  1571                           	callstack 0
  1572   000AC0                     _Timer0_init:
  1573                           	callstack 27
  1574   000AC0                     
  1575                           ;timers.c: 11: void Timer0_init(unsigned short init_test_mode);timers.c: 12: {;timers.c:
      +                           13:     test_mode = init_test_mode;
  1576   000AC0  C012  F045         	movff	Timer0_init@init_test_mode,_test_mode
  1577   000AC4  C013  F046         	movff	Timer0_init@init_test_mode+1,_test_mode+1
  1578   000AC8                     
  1579                           ;timers.c: 15:     T0CON1bits.T0CS=0b010;
  1580   000AC8  50D6               	movf	214,w,c	;volatile
  1581   000ACA  0B1F               	andlw	-225
  1582   000ACC  0940               	iorlw	64
  1583   000ACE  6ED6               	movwf	214,c	;volatile
  1584   000AD0                     
  1585                           ;timers.c: 16:     T0CON1bits.T0ASYNC=1;
  1586   000AD0  88D6               	bsf	214,4,c	;volatile
  1587   000AD2                     
  1588                           ;timers.c: 18:     T0CON0bits.T016BIT=1;
  1589   000AD2  88D5               	bsf	213,4,c	;volatile
  1590   000AD4                     
  1591                           ;timers.c: 20:     if(test_mode == 0){
  1592   000AD4  5045               	movf	_test_mode^0,w,c
  1593   000AD6  1046               	iorwf	(_test_mode+1)^0,w,c
  1594   000AD8  A4D8               	btfss	status,2,c
  1595   000ADA  EF71  F005         	goto	u1171
  1596   000ADE  EF73  F005         	goto	u1170
  1597   000AE2                     u1171:
  1598   000AE2  EF7D  F005         	goto	l1510
  1599   000AE6                     u1170:
  1600   000AE6                     
  1601                           ;timers.c: 22:         T0CON1bits.T0CKPS=8;
  1602   000AE6  50D6               	movf	214,w,c	;volatile
  1603   000AE8  0BF0               	andlw	-16
  1604   000AEA  0908               	iorlw	8
  1605   000AEC  6ED6               	movwf	214,c	;volatile
  1606                           
  1607                           ;timers.c: 24:         TMR0H = 0b1011;
  1608   000AEE  0E0B               	movlw	11
  1609   000AF0  6ED4               	movwf	212,c	;volatile
  1610                           
  1611                           ;timers.c: 25:         TMR0L = 0b11011100;
  1612   000AF2  0EDC               	movlw	220
  1613   000AF4  6ED3               	movwf	211,c	;volatile
  1614                           
  1615                           ;timers.c: 26:     }else{
  1616   000AF6  EF83  F005         	goto	l1512
  1617   000AFA                     l1510:
  1618                           
  1619                           ;timers.c: 27:         T0CON1bits.T0CKPS=0;
  1620   000AFA  0EF0               	movlw	-16
  1621   000AFC  16D6               	andwf	214,f,c	;volatile
  1622                           
  1623                           ;timers.c: 29:         TMR0H = 0;
  1624   000AFE  0E00               	movlw	0
  1625   000B00  6ED4               	movwf	212,c	;volatile
  1626                           
  1627                           ;timers.c: 30:         TMR0L = 0;
  1628   000B02  0E00               	movlw	0
  1629   000B04  6ED3               	movwf	211,c	;volatile
  1630   000B06                     l1512:
  1631                           
  1632                           ;timers.c: 32:     T0CON0bits.T0EN=1;
  1633   000B06  8ED5               	bsf	213,7,c	;volatile
  1634   000B08  0012               	return		;funcret
  1635   000B0A                     __end_of_Timer0_init:
  1636                           	callstack 0
  1637                           
  1638 ;; *************** function _LEDarray_init *****************
  1639 ;; Defined at:
  1640 ;;		line 8 in file "LEDarray.c"
  1641 ;; Parameters:    Size  Location     Type
  1642 ;;		None
  1643 ;; Auto vars:     Size  Location     Type
  1644 ;;		None
  1645 ;; Return value:  Size  Location     Type
  1646 ;;                  1    wreg      void 
  1647 ;; Registers used:
  1648 ;;		None
  1649 ;; Tracked objects:
  1650 ;;		On entry : 0/0
  1651 ;;		On exit  : 0/0
  1652 ;;		Unchanged: 0/0
  1653 ;; Data sizes:     COMRAM   BANK0   BANK1   BANK2   BANK3   BANK4   BANK5   BANK6   BANK7   BANK8   BANK9  BANK10  BANK1
      +1  BANK12  BANK13
  1654 ;;      Params:         0       0       0       0       0       0       0       0       0       0       0       0       
      +0       0       0
  1655 ;;      Locals:         0       0       0       0       0       0       0       0       0       0       0       0       
      +0       0       0
  1656 ;;      Temps:          0       0       0       0       0       0       0       0       0       0       0       0       
      +0       0       0
  1657 ;;      Totals:         0       0       0       0       0       0       0       0       0       0       0       0       
      +0       0       0
  1658 ;;Total ram usage:        0 bytes
  1659 ;; Hardware stack levels used: 1
  1660 ;; Hardware stack levels required when called: 3
  1661 ;; This function calls:
  1662 ;;		Nothing
  1663 ;; This function is called by:
  1664 ;;		_main
  1665 ;; This function uses a non-reentrant model
  1666 ;;
  1667                           
  1668                           	psect	text7
  1669   000B0A                     __ptext7:
  1670                           	callstack 0
  1671   000B0A                     _LEDarray_init:
  1672                           	callstack 27
  1673   000B0A                     
  1674                           ;LEDarray.c: 14:     TRISGbits.TRISG0 = 0;
  1675   000B0A  9087               	bcf	135,0,c	;volatile
  1676                           
  1677                           ;LEDarray.c: 15:     TRISGbits.TRISG1 = 0;
  1678   000B0C  9287               	bcf	135,1,c	;volatile
  1679                           
  1680                           ;LEDarray.c: 16:     TRISAbits.TRISA2 = 0;
  1681   000B0E  9481               	bcf	129,2,c	;volatile
  1682                           
  1683                           ;LEDarray.c: 17:     TRISFbits.TRISF6 = 0;
  1684   000B10  9C86               	bcf	134,6,c	;volatile
  1685                           
  1686                           ;LEDarray.c: 18:     TRISAbits.TRISA4 = 0;
  1687   000B12  9881               	bcf	129,4,c	;volatile
  1688                           
  1689                           ;LEDarray.c: 19:     TRISAbits.TRISA5 = 0;
  1690   000B14  9A81               	bcf	129,5,c	;volatile
  1691                           
  1692                           ;LEDarray.c: 20:     TRISFbits.TRISF0 = 0;
  1693   000B16  9086               	bcf	134,0,c	;volatile
  1694                           
  1695                           ;LEDarray.c: 21:     TRISBbits.TRISB0 = 0;
  1696   000B18  9082               	bcf	130,0,c	;volatile
  1697                           
  1698                           ;LEDarray.c: 22:     TRISBbits.TRISB1 = 0;
  1699   000B1A  9282               	bcf	130,1,c	;volatile
  1700                           
  1701                           ;LEDarray.c: 24:     PORTGbits.RG0 = 1;
  1702   000B1C  808F               	bsf	143,0,c	;volatile
  1703                           
  1704                           ;LEDarray.c: 25:     PORTGbits.RG1 = 1;
  1705   000B1E  828F               	bsf	143,1,c	;volatile
  1706                           
  1707                           ;LEDarray.c: 26:     PORTAbits.RA2 = 1;
  1708   000B20  8489               	bsf	137,2,c	;volatile
  1709                           
  1710                           ;LEDarray.c: 27:     PORTFbits.RF6 = 1;
  1711   000B22  8C8E               	bsf	142,6,c	;volatile
  1712                           
  1713                           ;LEDarray.c: 28:     PORTAbits.RA4 = 1;
  1714   000B24  8889               	bsf	137,4,c	;volatile
  1715                           
  1716                           ;LEDarray.c: 29:     PORTAbits.RA5 = 1;
  1717   000B26  8A89               	bsf	137,5,c	;volatile
  1718                           
  1719                           ;LEDarray.c: 30:     PORTFbits.RF0 = 1;
  1720   000B28  808E               	bsf	142,0,c	;volatile
  1721                           
  1722                           ;LEDarray.c: 31:     PORTBbits.RB0 = 1;
  1723   000B2A  808A               	bsf	138,0,c	;volatile
  1724                           
  1725                           ;LEDarray.c: 32:     PORTBbits.RB1 = 1;
  1726   000B2C  828A               	bsf	138,1,c	;volatile
  1727                           
  1728                           ;LEDarray.c: 34:     LATGbits.LATG0 = 0;
  1729   000B2E  907F               	bcf	127,0,c	;volatile
  1730                           
  1731                           ;LEDarray.c: 35:     LATGbits.LATG1 = 0;
  1732   000B30  927F               	bcf	127,1,c	;volatile
  1733                           
  1734                           ;LEDarray.c: 36:     LATAbits.LATA2 = 0;
  1735   000B32  9479               	bcf	121,2,c	;volatile
  1736                           
  1737                           ;LEDarray.c: 37:     LATFbits.LATF6 = 0;
  1738   000B34  9C7E               	bcf	126,6,c	;volatile
  1739                           
  1740                           ;LEDarray.c: 38:     LATAbits.LATA4 = 0;
  1741   000B36  9879               	bcf	121,4,c	;volatile
  1742                           
  1743                           ;LEDarray.c: 39:     LATAbits.LATA5 = 0;
  1744   000B38  9A79               	bcf	121,5,c	;volatile
  1745                           
  1746                           ;LEDarray.c: 40:     LATFbits.LATF0 = 0;
  1747   000B3A  907E               	bcf	126,0,c	;volatile
  1748                           
  1749                           ;LEDarray.c: 41:     LATBbits.LATB0 = 0;
  1750   000B3C  907A               	bcf	122,0,c	;volatile
  1751                           
  1752                           ;LEDarray.c: 42:     LATBbits.LATB1 = 0;
  1753   000B3E  927A               	bcf	122,1,c	;volatile
  1754   000B40  0012               	return		;funcret
  1755   000B42                     __end_of_LEDarray_init:
  1756                           	callstack 0
  1757                           
  1758 ;; *************** function _LEDarray_disp_bin *****************
  1759 ;; Defined at:
  1760 ;;		line 49 in file "LEDarray.c"
  1761 ;; Parameters:    Size  Location     Type
  1762 ;;  number          2   27[COMRAM] unsigned int 
  1763 ;; Auto vars:     Size  Location     Type
  1764 ;;		None
  1765 ;; Return value:  Size  Location     Type
  1766 ;;                  1    wreg      void 
  1767 ;; Registers used:
  1768 ;;		None
  1769 ;; Tracked objects:
  1770 ;;		On entry : 0/0
  1771 ;;		On exit  : 0/0
  1772 ;;		Unchanged: 0/0
  1773 ;; Data sizes:     COMRAM   BANK0   BANK1   BANK2   BANK3   BANK4   BANK5   BANK6   BANK7   BANK8   BANK9  BANK10  BANK1
      +1  BANK12  BANK13
  1774 ;;      Params:         2       0       0       0       0       0       0       0       0       0       0       0       
      +0       0       0
  1775 ;;      Locals:         0       0       0       0       0       0       0       0       0       0       0       0       
      +0       0       0
  1776 ;;      Temps:          0       0       0       0       0       0       0       0       0       0       0       0       
      +0       0       0
  1777 ;;      Totals:         2       0       0       0       0       0       0       0       0       0       0       0       
      +0       0       0
  1778 ;;Total ram usage:        2 bytes
  1779 ;; Hardware stack levels used: 1
  1780 ;; Hardware stack levels required when called: 3
  1781 ;; This function calls:
  1782 ;;		Nothing
  1783 ;; This function is called by:
  1784 ;;		_main
  1785 ;;		_LEDarray_disp_dec
  1786 ;;		_LEDarray_disp_PPM
  1787 ;; This function uses a non-reentrant model
  1788 ;;
  1789                           
  1790                           	psect	text8
  1791   0008B8                     __ptext8:
  1792                           	callstack 0
  1793   0008B8                     _LEDarray_disp_bin:
  1794                           	callstack 27
  1795   0008B8                     
  1796                           ;LEDarray.c: 49: void LEDarray_disp_bin(unsigned int number);LEDarray.c: 50: {;LEDarray.
      +                          c: 54:     if(number & 0b000000001){LATGbits.LATG0 = 1;}else{LATGbits.LATG0 = 0;}
  1797   0008B8  A01C               	btfss	LEDarray_disp_bin@number^0,0,c
  1798   0008BA  EF61  F004         	goto	u1081
  1799   0008BE  EF63  F004         	goto	u1080
  1800   0008C2                     u1081:
  1801   0008C2  EF66  F004         	goto	l30
  1802   0008C6                     u1080:
  1803   0008C6  807F               	bsf	127,0,c	;volatile
  1804   0008C8  EF67  F004         	goto	l31
  1805   0008CC                     l30:
  1806   0008CC  907F               	bcf	127,0,c	;volatile
  1807   0008CE                     l31:
  1808                           
  1809                           ;LEDarray.c: 55:     if(number & 0b000000010){LATGbits.LATG1 = 1;}else{LATGbits.LATG1 = 
      +                          0;}
  1810   0008CE  A21C               	btfss	LEDarray_disp_bin@number^0,1,c
  1811   0008D0  EF6C  F004         	goto	u1091
  1812   0008D4  EF6E  F004         	goto	u1090
  1813   0008D8                     u1091:
  1814   0008D8  EF71  F004         	goto	l32
  1815   0008DC                     u1090:
  1816   0008DC  827F               	bsf	127,1,c	;volatile
  1817   0008DE  EF72  F004         	goto	l33
  1818   0008E2                     l32:
  1819   0008E2  927F               	bcf	127,1,c	;volatile
  1820   0008E4                     l33:
  1821                           
  1822                           ;LEDarray.c: 56:     if(number & 0b000000100){LATAbits.LATA2 = 1;}else{LATAbits.LATA2 = 
      +                          0;}
  1823   0008E4  A41C               	btfss	LEDarray_disp_bin@number^0,2,c
  1824   0008E6  EF77  F004         	goto	u1101
  1825   0008EA  EF79  F004         	goto	u1100
  1826   0008EE                     u1101:
  1827   0008EE  EF7C  F004         	goto	l34
  1828   0008F2                     u1100:
  1829   0008F2  8479               	bsf	121,2,c	;volatile
  1830   0008F4  EF7D  F004         	goto	l35
  1831   0008F8                     l34:
  1832   0008F8  9479               	bcf	121,2,c	;volatile
  1833   0008FA                     l35:
  1834                           
  1835                           ;LEDarray.c: 57:     if(number & 0b000001000){LATFbits.LATF6 = 1;}else{LATFbits.LATF6 = 
      +                          0;}
  1836   0008FA  A61C               	btfss	LEDarray_disp_bin@number^0,3,c
  1837   0008FC  EF82  F004         	goto	u1111
  1838   000900  EF84  F004         	goto	u1110
  1839   000904                     u1111:
  1840   000904  EF87  F004         	goto	l36
  1841   000908                     u1110:
  1842   000908  8C7E               	bsf	126,6,c	;volatile
  1843   00090A  EF88  F004         	goto	l37
  1844   00090E                     l36:
  1845   00090E  9C7E               	bcf	126,6,c	;volatile
  1846   000910                     l37:
  1847                           
  1848                           ;LEDarray.c: 58:     if(number & 0b000010000){LATAbits.LATA4 = 1;}else{LATAbits.LATA4 = 
      +                          0;}
  1849   000910  A81C               	btfss	LEDarray_disp_bin@number^0,4,c
  1850   000912  EF8D  F004         	goto	u1121
  1851   000916  EF8F  F004         	goto	u1120
  1852   00091A                     u1121:
  1853   00091A  EF92  F004         	goto	l38
  1854   00091E                     u1120:
  1855   00091E  8879               	bsf	121,4,c	;volatile
  1856   000920  EF93  F004         	goto	l39
  1857   000924                     l38:
  1858   000924  9879               	bcf	121,4,c	;volatile
  1859   000926                     l39:
  1860                           
  1861                           ;LEDarray.c: 59:     if(number & 0b000100000){LATAbits.LATA5 = 1;}else{LATAbits.LATA5 = 
      +                          0;}
  1862   000926  AA1C               	btfss	LEDarray_disp_bin@number^0,5,c
  1863   000928  EF98  F004         	goto	u1131
  1864   00092C  EF9A  F004         	goto	u1130
  1865   000930                     u1131:
  1866   000930  EF9D  F004         	goto	l40
  1867   000934                     u1130:
  1868   000934  8A79               	bsf	121,5,c	;volatile
  1869   000936  EF9E  F004         	goto	l41
  1870   00093A                     l40:
  1871   00093A  9A79               	bcf	121,5,c	;volatile
  1872   00093C                     l41:
  1873                           
  1874                           ;LEDarray.c: 60:     if(number & 0b001000000){LATFbits.LATF0 = 1;}else{LATFbits.LATF0 = 
      +                          0;}
  1875   00093C  AC1C               	btfss	LEDarray_disp_bin@number^0,6,c
  1876   00093E  EFA3  F004         	goto	u1141
  1877   000942  EFA5  F004         	goto	u1140
  1878   000946                     u1141:
  1879   000946  EFA8  F004         	goto	l42
  1880   00094A                     u1140:
  1881   00094A  807E               	bsf	126,0,c	;volatile
  1882   00094C  EFA9  F004         	goto	l43
  1883   000950                     l42:
  1884   000950  907E               	bcf	126,0,c	;volatile
  1885   000952                     l43:
  1886                           
  1887                           ;LEDarray.c: 61:     if(number & 0b010000000){LATBbits.LATB0 = 1;}else{LATBbits.LATB0 = 
      +                          0;}
  1888   000952  AE1C               	btfss	LEDarray_disp_bin@number^0,7,c
  1889   000954  EFAE  F004         	goto	u1151
  1890   000958  EFB0  F004         	goto	u1150
  1891   00095C                     u1151:
  1892   00095C  EFB3  F004         	goto	l44
  1893   000960                     u1150:
  1894   000960  807A               	bsf	122,0,c	;volatile
  1895   000962  EFB4  F004         	goto	l45
  1896   000966                     l44:
  1897   000966  907A               	bcf	122,0,c	;volatile
  1898   000968                     l45:
  1899                           
  1900                           ;LEDarray.c: 62:     if(number & 0b100000000){LATBbits.LATB1 = 1;}else{LATBbits.LATB1 = 
      +                          0;}
  1901   000968  A01D               	btfss	(LEDarray_disp_bin@number+1)^0,0,c
  1902   00096A  EFB9  F004         	goto	u1161
  1903   00096E  EFBB  F004         	goto	u1160
  1904   000972                     u1161:
  1905   000972  EFBE  F004         	goto	l46
  1906   000976                     u1160:
  1907   000976  827A               	bsf	122,1,c	;volatile
  1908   000978  EFBF  F004         	goto	l48
  1909   00097C                     l46:
  1910   00097C  927A               	bcf	122,1,c	;volatile
  1911   00097E                     l48:
  1912   00097E  0012               	return		;funcret
  1913   000980                     __end_of_LEDarray_disp_bin:
  1914                           	callstack 0
  1915                           
  1916 ;; *************** function _Interrupts_init *****************
  1917 ;; Defined at:
  1918 ;;		line 9 in file "interrupts.c"
  1919 ;; Parameters:    Size  Location     Type
  1920 ;;		None
  1921 ;; Auto vars:     Size  Location     Type
  1922 ;;		None
  1923 ;; Return value:  Size  Location     Type
  1924 ;;                  1    wreg      void 
  1925 ;; Registers used:
  1926 ;;		None
  1927 ;; Tracked objects:
  1928 ;;		On entry : 0/0
  1929 ;;		On exit  : 0/0
  1930 ;;		Unchanged: 0/0
  1931 ;; Data sizes:     COMRAM   BANK0   BANK1   BANK2   BANK3   BANK4   BANK5   BANK6   BANK7   BANK8   BANK9  BANK10  BANK1
      +1  BANK12  BANK13
  1932 ;;      Params:         0       0       0       0       0       0       0       0       0       0       0       0       
      +0       0       0
  1933 ;;      Locals:         0       0       0       0       0       0       0       0       0       0       0       0       
      +0       0       0
  1934 ;;      Temps:          0       0       0       0       0       0       0       0       0       0       0       0       
      +0       0       0
  1935 ;;      Totals:         0       0       0       0       0       0       0       0       0       0       0       0       
      +0       0       0
  1936 ;;Total ram usage:        0 bytes
  1937 ;; Hardware stack levels used: 1
  1938 ;; Hardware stack levels required when called: 3
  1939 ;; This function calls:
  1940 ;;		Nothing
  1941 ;; This function is called by:
  1942 ;;		_main
  1943 ;; This function uses a non-reentrant model
  1944 ;;
  1945                           
  1946                           	psect	text9
  1947   000B8C                     __ptext9:
  1948                           	callstack 0
  1949   000B8C                     _Interrupts_init:
  1950                           	callstack 27
  1951   000B8C                     
  1952                           ;interrupts.c: 13:     PIE2bits.C1IE = 1;
  1953   000B8C  010E               	movlb	14	; () banked
  1954   000B8E  812B               	bsf	43,0,b	;volatile
  1955                           
  1956                           ;interrupts.c: 14:     INTCONbits.IPEN = 1;
  1957   000B90  8AF2               	bsf	242,5,c	;volatile
  1958                           
  1959                           ;interrupts.c: 15:     INTCONbits.GIEL=1;
  1960   000B92  8CF2               	bsf	242,6,c	;volatile
  1961                           
  1962                           ;interrupts.c: 16:     IPR2bits.C1IP=1;
  1963   000B94  8121               	bsf	33,0,b	;volatile
  1964                           
  1965                           ;interrupts.c: 17:     PIE0bits.TMR0IE=1;
  1966   000B96  8B29               	bsf	41,5,b	;volatile
  1967                           
  1968                           ;interrupts.c: 18:     INTCONbits.GIEH=1;
  1969   000B98  8EF2               	bsf	242,7,c	;volatile
  1970   000B9A                     
  1971                           ; BSR set to: 14
  1972   000B9A  0012               	return		;funcret
  1973   000B9C                     __end_of_Interrupts_init:
  1974                           	callstack 0
  1975                           
  1976 ;; *************** function _Comp1_init *****************
  1977 ;; Defined at:
  1978 ;;		line 22 in file "comparator.c"
  1979 ;; Parameters:    Size  Location     Type
  1980 ;;		None
  1981 ;; Auto vars:     Size  Location     Type
  1982 ;;		None
  1983 ;; Return value:  Size  Location     Type
  1984 ;;                  1    wreg      void 
  1985 ;; Registers used:
  1986 ;;		wreg, status,2, cstack
  1987 ;; Tracked objects:
  1988 ;;		On entry : 0/0
  1989 ;;		On exit  : 0/0
  1990 ;;		Unchanged: 0/0
  1991 ;; Data sizes:     COMRAM   BANK0   BANK1   BANK2   BANK3   BANK4   BANK5   BANK6   BANK7   BANK8   BANK9  BANK10  BANK1
      +1  BANK12  BANK13
  1992 ;;      Params:         0       0       0       0       0       0       0       0       0       0       0       0       
      +0       0       0
  1993 ;;      Locals:         0       0       0       0       0       0       0       0       0       0       0       0       
      +0       0       0
  1994 ;;      Temps:          0       0       0       0       0       0       0       0       0       0       0       0       
      +0       0       0
  1995 ;;      Totals:         0       0       0       0       0       0       0       0       0       0       0       0       
      +0       0       0
  1996 ;;Total ram usage:        0 bytes
  1997 ;; Hardware stack levels used: 1
  1998 ;; Hardware stack levels required when called: 4
  1999 ;; This function calls:
  2000 ;;		_DAC_init
  2001 ;; This function is called by:
  2002 ;;		_main
  2003 ;; This function uses a non-reentrant model
  2004 ;;
  2005                           
  2006                           	psect	text10
  2007   000B42                     __ptext10:
  2008                           	callstack 0
  2009   000B42                     _Comp1_init:
  2010                           	callstack 26
  2011   000B42                     
  2012                           ;comparator.c: 24:     TRISFbits.TRISF7=1;
  2013   000B42  8E86               	bsf	134,7,c	;volatile
  2014   000B44                     
  2015                           ;comparator.c: 25:     CM1NCHbits.NCH=0b011;
  2016   000B44  010E               	movlb	14	; () banked
  2017   000B46  51D2               	movf	210,w,b	;volatile
  2018   000B48  0BF8               	andlw	-8
  2019   000B4A  0903               	iorlw	3
  2020   000B4C  6FD2               	movwf	210,b	;volatile
  2021                           
  2022                           ;comparator.c: 26:     CM1PCHbits.PCH=0b101;
  2023   000B4E  51D3               	movf	211,w,b	;volatile
  2024   000B50  0BF8               	andlw	-8
  2025   000B52  0905               	iorlw	5
  2026   000B54  6FD3               	movwf	211,b	;volatile
  2027   000B56                     
  2028                           ; BSR set to: 14
  2029                           ;comparator.c: 27:     CM1CON0bits.HYS=1;
  2030   000B56  83D0               	bsf	208,1,b	;volatile
  2031   000B58                     
  2032                           ; BSR set to: 14
  2033                           ;comparator.c: 28:     CM1CON0bits.POL=1;
  2034   000B58  89D0               	bsf	208,4,b	;volatile
  2035   000B5A                     
  2036                           ; BSR set to: 14
  2037                           ;comparator.c: 29:     CM1CON1bits.INTP=1;
  2038   000B5A  83D1               	bsf	209,1,b	;volatile
  2039   000B5C                     
  2040                           ; BSR set to: 14
  2041                           ;comparator.c: 30:     DAC_init();
  2042   000B5C  ECB3  F005         	call	_DAC_init	;wreg free
  2043   000B60                     
  2044                           ;comparator.c: 31:     CM1CON0bits.EN=1;
  2045   000B60  010E               	movlb	14	; () banked
  2046   000B62  8FD0               	bsf	208,7,b	;volatile
  2047   000B64                     
  2048                           ; BSR set to: 14
  2049   000B64  0012               	return		;funcret
  2050   000B66                     __end_of_Comp1_init:
  2051                           	callstack 0
  2052                           
  2053 ;; *************** function _DAC_init *****************
  2054 ;; Defined at:
  2055 ;;		line 7 in file "comparator.c"
  2056 ;; Parameters:    Size  Location     Type
  2057 ;;		None
  2058 ;; Auto vars:     Size  Location     Type
  2059 ;;		None
  2060 ;; Return value:  Size  Location     Type
  2061 ;;                  1    wreg      void 
  2062 ;; Registers used:
  2063 ;;		wreg, status,2
  2064 ;; Tracked objects:
  2065 ;;		On entry : 0/0
  2066 ;;		On exit  : 0/0
  2067 ;;		Unchanged: 0/0
  2068 ;; Data sizes:     COMRAM   BANK0   BANK1   BANK2   BANK3   BANK4   BANK5   BANK6   BANK7   BANK8   BANK9  BANK10  BANK1
      +1  BANK12  BANK13
  2069 ;;      Params:         0       0       0       0       0       0       0       0       0       0       0       0       
      +0       0       0
  2070 ;;      Locals:         0       0       0       0       0       0       0       0       0       0       0       0       
      +0       0       0
  2071 ;;      Temps:          0       0       0       0       0       0       0       0       0       0       0       0       
      +0       0       0
  2072 ;;      Totals:         0       0       0       0       0       0       0       0       0       0       0       0       
      +0       0       0
  2073 ;;Total ram usage:        0 bytes
  2074 ;; Hardware stack levels used: 1
  2075 ;; Hardware stack levels required when called: 3
  2076 ;; This function calls:
  2077 ;;		Nothing
  2078 ;; This function is called by:
  2079 ;;		_Comp1_init
  2080 ;; This function uses a non-reentrant model
  2081 ;;
  2082                           
  2083                           	psect	text11
  2084   000B66                     __ptext11:
  2085                           	callstack 0
  2086   000B66                     _DAC_init:
  2087                           	callstack 26
  2088   000B66                     
  2089                           ;comparator.c: 9:     DAC1CON0bits.PSS=0b00;
  2090   000B66  0EF3               	movlw	-13
  2091   000B68  010E               	movlb	14	; () banked
  2092   000B6A  17C6               	andwf	198,f,b	;volatile
  2093   000B6C                     
  2094                           ; BSR set to: 14
  2095                           ;comparator.c: 10:     DAC1CON0bits.NSS=0b0;
  2096   000B6C  91C6               	bcf	198,0,b	;volatile
  2097                           
  2098                           ;comparator.c: 14:     DAC1CON1bits.DAC1R=20;
  2099   000B6E  51C7               	movf	199,w,b	;volatile
  2100   000B70  0BE0               	andlw	-32
  2101   000B72  0914               	iorlw	20
  2102   000B74  6FC7               	movwf	199,b	;volatile
  2103   000B76                     
  2104                           ; BSR set to: 14
  2105                           ;comparator.c: 15:     DAC1CON0bits.DAC1EN=1;
  2106   000B76  8FC6               	bsf	198,7,b	;volatile
  2107   000B78                     
  2108                           ; BSR set to: 14
  2109   000B78  0012               	return		;funcret
  2110   000B7A                     __end_of_DAC_init:
  2111                           	callstack 0
  2112                           
  2113 ;; *************** function _HighISR *****************
  2114 ;; Defined at:
  2115 ;;		line 25 in file "interrupts.c"
  2116 ;; Parameters:    Size  Location     Type
  2117 ;;		None
  2118 ;; Auto vars:     Size  Location     Type
  2119 ;;		None
  2120 ;; Return value:  Size  Location     Type
  2121 ;;                  1    wreg      void 
  2122 ;; Registers used:
  2123 ;;		wreg, status,2, status,0, cstack
  2124 ;; Tracked objects:
  2125 ;;		On entry : 0/0
  2126 ;;		On exit  : 0/0
  2127 ;;		Unchanged: 0/0
  2128 ;; Data sizes:     COMRAM   BANK0   BANK1   BANK2   BANK3   BANK4   BANK5   BANK6   BANK7   BANK8   BANK9  BANK10  BANK1
      +1  BANK12  BANK13
  2129 ;;      Params:         0       0       0       0       0       0       0       0       0       0       0       0       
      +0       0       0
  2130 ;;      Locals:         0       0       0       0       0       0       0       0       0       0       0       0       
      +0       0       0
  2131 ;;      Temps:          1       0       0       0       0       0       0       0       0       0       0       0       
      +0       0       0
  2132 ;;      Totals:         1       0       0       0       0       0       0       0       0       0       0       0       
      +0       0       0
  2133 ;;Total ram usage:        1 bytes
  2134 ;; Hardware stack levels used: 1
  2135 ;; Hardware stack levels required when called: 2
  2136 ;; This function calls:
  2137 ;;		_increment_time
  2138 ;; This function is called by:
  2139 ;;		Interrupt level 2
  2140 ;; This function uses a non-reentrant model
  2141 ;;
  2142                           
  2143                           	psect	intcode
  2144   000008                     __pintcode:
  2145                           	callstack 0
  2146   000008                     _HighISR:
  2147                           	callstack 26
  2148                           
  2149                           ; BSR set to: 14
  2150                           ;incstack = 0
  2151   000008  8247               	bsf	int$flags,1,c	;set compiler interrupt flag (level 2)
  2152   00000A                     
  2153                           ;interrupts.c: 27:  if(PIR2bits.C1IF){
  2154   00000A  010E               	movlb	14	; () banked
  2155   00000C  A135               	btfss	53,0,b	;volatile
  2156   00000E  EF0B  F000         	goto	i2u139_41
  2157   000012  EF0D  F000         	goto	i2u139_40
  2158   000016                     i2u139_41:
  2159   000016  EF20  F000         	goto	i2l1654
  2160   00001A                     i2u139_40:
  2161   00001A                     
  2162                           ; BSR set to: 14
  2163                           ;interrupts.c: 28:         LATDbits.LATD7 = !LATDbits.LATD7;
  2164   00001A  AE7C               	btfss	124,7,c	;volatile
  2165   00001C  EF12  F000         	goto	i2u140_41
  2166   000020  EF16  F000         	goto	i2u140_40
  2167   000024                     i2u140_41:
  2168   000024  6A11               	clrf	??_HighISR^0,c
  2169   000026  2A11               	incf	??_HighISR^0,f,c
  2170   000028  EF17  F000         	goto	i2u141_48
  2171   00002C                     i2u140_40:
  2172   00002C  6A11               	clrf	??_HighISR^0,c
  2173   00002E                     i2u141_48:
  2174   00002E  3211               	rrcf	??_HighISR^0,f,c
  2175   000030  3211               	rrcf	??_HighISR^0,f,c
  2176   000032  507C               	movf	124,w,c	;volatile
  2177   000034  1811               	xorwf	??_HighISR^0,w,c
  2178   000036  0B7F               	andlw	-129
  2179   000038  1811               	xorwf	??_HighISR^0,w,c
  2180   00003A  6E7C               	movwf	124,c	;volatile
  2181   00003C                     
  2182                           ;interrupts.c: 29:         PIR2bits.C1IF=0;
  2183   00003C  010E               	movlb	14	; () banked
  2184   00003E  9135               	bcf	53,0,b	;volatile
  2185   000040                     i2l1654:
  2186                           
  2187                           ; BSR set to: 14
  2188                           ;interrupts.c: 31:     if(PIR0bits.TMR0IF){
  2189   000040  AB33               	btfss	51,5,b	;volatile
  2190   000042  EF25  F000         	goto	i2u142_41
  2191   000046  EF27  F000         	goto	i2u142_40
  2192   00004A                     i2u142_41:
  2193   00004A  EF46  F000         	goto	i2l148
  2194   00004E                     i2u142_40:
  2195   00004E                     
  2196                           ; BSR set to: 14
  2197                           ;interrupts.c: 33:         increment_time(1);
  2198   00004E  0E01               	movlw	1
  2199   000050  6E0D               	movwf	increment_time@increment^0,c
  2200   000052  0E00               	movlw	0
  2201   000054  6E0E               	movwf	(increment_time@increment+1)^0,c
  2202   000056  0E00               	movlw	0
  2203   000058  6E0F               	movwf	(increment_time@increment+2)^0,c
  2204   00005A  0E00               	movlw	0
  2205   00005C  6E10               	movwf	(increment_time@increment+3)^0,c
  2206   00005E  ECC0  F004         	call	_increment_time	;wreg free
  2207   000062                     
  2208                           ;interrupts.c: 35:         if(test_mode == 0){
  2209   000062  5045               	movf	_test_mode^0,w,c
  2210   000064  1046               	iorwf	(_test_mode+1)^0,w,c
  2211   000066  A4D8               	btfss	status,2,c
  2212   000068  EF38  F000         	goto	i2u143_41
  2213   00006C  EF3A  F000         	goto	i2u143_40
  2214   000070                     i2u143_41:
  2215   000070  EF40  F000         	goto	i2l1662
  2216   000074                     i2u143_40:
  2217   000074                     
  2218                           ;interrupts.c: 36:             TMR0H = 0b1011;
  2219   000074  0E0B               	movlw	11
  2220   000076  6ED4               	movwf	212,c	;volatile
  2221                           
  2222                           ;interrupts.c: 37:             TMR0L = 0b11011100;
  2223   000078  0EDC               	movlw	220
  2224   00007A  6ED3               	movwf	211,c	;volatile
  2225                           
  2226                           ;interrupts.c: 38:         }else{
  2227   00007C  EF44  F000         	goto	i2l1664
  2228   000080                     i2l1662:
  2229                           
  2230                           ;interrupts.c: 39:             TMR0H = 0;
  2231   000080  0E00               	movlw	0
  2232   000082  6ED4               	movwf	212,c	;volatile
  2233                           
  2234                           ;interrupts.c: 40:             TMR0L = 0;
  2235   000084  0E00               	movlw	0
  2236   000086  6ED3               	movwf	211,c	;volatile
  2237   000088                     i2l1664:
  2238                           
  2239                           ;interrupts.c: 43:         PIR0bits.TMR0IF = 0;
  2240   000088  010E               	movlb	14	; () banked
  2241   00008A  9B33               	bcf	51,5,b	;volatile
  2242   00008C                     i2l148:
  2243                           
  2244                           ; BSR set to: 14
  2245   00008C  9247               	bcf	int$flags,1,c	;clear compiler interrupt flag (level 2)
  2246   00008E  0011               	retfie		f
  2247   000090                     __end_of_HighISR:
  2248                           	callstack 0
  2249                           
  2250 ;; *************** function _increment_time *****************
  2251 ;; Defined at:
  2252 ;;		line 60 in file "timers.c"
  2253 ;; Parameters:    Size  Location     Type
  2254 ;;  increment       4   12[COMRAM] unsigned long 
  2255 ;; Auto vars:     Size  Location     Type
  2256 ;;		None
  2257 ;; Return value:  Size  Location     Type
  2258 ;;                  4   12[COMRAM] unsigned long 
  2259 ;; Registers used:
  2260 ;;		wreg, status,2, status,0, cstack
  2261 ;; Tracked objects:
  2262 ;;		On entry : 0/0
  2263 ;;		On exit  : 0/0
  2264 ;;		Unchanged: 0/0
  2265 ;; Data sizes:     COMRAM   BANK0   BANK1   BANK2   BANK3   BANK4   BANK5   BANK6   BANK7   BANK8   BANK9  BANK10  BANK1
      +1  BANK12  BANK13
  2266 ;;      Params:         4       0       0       0       0       0       0       0       0       0       0       0       
      +0       0       0
  2267 ;;      Locals:         0       0       0       0       0       0       0       0       0       0       0       0       
      +0       0       0
  2268 ;;      Temps:          0       0       0       0       0       0       0       0       0       0       0       0       
      +0       0       0
  2269 ;;      Totals:         4       0       0       0       0       0       0       0       0       0       0       0       
      +0       0       0
  2270 ;;Total ram usage:        4 bytes
  2271 ;; Hardware stack levels used: 1
  2272 ;; Hardware stack levels required when called: 1
  2273 ;; This function calls:
  2274 ;;		___lmul
  2275 ;; This function is called by:
  2276 ;;		_HighISR
  2277 ;; This function uses a non-reentrant model
  2278 ;;
  2279                           
  2280                           	psect	text13
  2281   000980                     __ptext13:
  2282                           	callstack 0
  2283   000980                     _increment_time:
  2284                           	callstack 26
  2285   000980                     
  2286                           ;timers.c: 62:     if(test_mode == 0){
  2287   000980  5045               	movf	_test_mode^0,w,c
  2288   000982  1046               	iorwf	(_test_mode+1)^0,w,c
  2289   000984  A4D8               	btfss	status,2,c
  2290   000986  EFC7  F004         	goto	i2u118_41
  2291   00098A  EFC9  F004         	goto	i2u118_40
  2292   00098E                     i2u118_41:
  2293   00098E  EFD3  F004         	goto	i2l1522
  2294   000992                     i2u118_40:
  2295   000992                     
  2296                           ;timers.c: 63:         time_counter += increment;
  2297   000992  500D               	movf	increment_time@increment^0,w,c
  2298   000994  2641               	addwf	_time_counter^0,f,c
  2299   000996  500E               	movf	(increment_time@increment+1)^0,w,c
  2300   000998  2242               	addwfc	(_time_counter+1)^0,f,c
  2301   00099A  500F               	movf	(increment_time@increment+2)^0,w,c
  2302   00099C  2243               	addwfc	(_time_counter+2)^0,f,c
  2303   00099E  5010               	movf	(increment_time@increment+3)^0,w,c
  2304   0009A0  2244               	addwfc	(_time_counter+3)^0,f,c
  2305                           
  2306                           ;timers.c: 64:     }else{
  2307   0009A2  EFED  F004         	goto	i2l1524
  2308   0009A6                     i2l1522:
  2309                           
  2310                           ;timers.c: 65:         time_counter += increment*15;
  2311   0009A6  C00D  F001         	movff	increment_time@increment,___lmul@multiplier
  2312   0009AA  C00E  F002         	movff	increment_time@increment+1,___lmul@multiplier+1
  2313   0009AE  C00F  F003         	movff	increment_time@increment+2,___lmul@multiplier+2
  2314   0009B2  C010  F004         	movff	increment_time@increment+3,___lmul@multiplier+3
  2315   0009B6  0E0F               	movlw	15
  2316   0009B8  6E05               	movwf	___lmul@multiplicand^0,c
  2317   0009BA  0E00               	movlw	0
  2318   0009BC  6E06               	movwf	(___lmul@multiplicand+1)^0,c
  2319   0009BE  0E00               	movlw	0
  2320   0009C0  6E07               	movwf	(___lmul@multiplicand+2)^0,c
  2321   0009C2  0E00               	movlw	0
  2322   0009C4  6E08               	movwf	(___lmul@multiplicand+3)^0,c
  2323   0009C6  EC05  F005         	call	___lmul	;wreg free
  2324   0009CA  5001               	movf	?___lmul^0,w,c
  2325   0009CC  2641               	addwf	_time_counter^0,f,c
  2326   0009CE  5002               	movf	(?___lmul+1)^0,w,c
  2327   0009D0  2242               	addwfc	(_time_counter+1)^0,f,c
  2328   0009D2  5003               	movf	(?___lmul+2)^0,w,c
  2329   0009D4  2243               	addwfc	(_time_counter+2)^0,f,c
  2330   0009D6  5004               	movf	(?___lmul+3)^0,w,c
  2331   0009D8  2244               	addwfc	(_time_counter+3)^0,f,c
  2332   0009DA                     i2l1524:
  2333                           
  2334                           ;timers.c: 67:     if(time_counter >= 86400){
  2335   0009DA  5044               	movf	(_time_counter+3)^0,w,c
  2336   0009DC  E10D               	bnz	i2u119_40
  2337   0009DE  0E80               	movlw	128
  2338   0009E0  5C41               	subwf	_time_counter^0,w,c
  2339   0009E2  0E51               	movlw	81
  2340   0009E4  5842               	subwfb	(_time_counter+1)^0,w,c
  2341   0009E6  0E01               	movlw	1
  2342   0009E8  5843               	subwfb	(_time_counter+2)^0,w,c
  2343   0009EA  A0D8               	btfss	status,0,c
  2344   0009EC  EFFA  F004         	goto	i2u119_41
  2345   0009F0  EFFC  F004         	goto	i2u119_40
  2346   0009F4                     i2u119_41:
  2347   0009F4  EF04  F005         	goto	i2l183
  2348   0009F8                     i2u119_40:
  2349   0009F8                     
  2350                           ;timers.c: 68:         time_counter = 0;
  2351   0009F8  0E00               	movlw	0
  2352   0009FA  6E41               	movwf	_time_counter^0,c
  2353   0009FC  0E00               	movlw	0
  2354   0009FE  6E42               	movwf	(_time_counter+1)^0,c
  2355   000A00  0E00               	movlw	0
  2356   000A02  6E43               	movwf	(_time_counter+2)^0,c
  2357   000A04  0E00               	movlw	0
  2358   000A06  6E44               	movwf	(_time_counter+3)^0,c
  2359   000A08                     i2l183:
  2360   000A08  0012               	return		;funcret
  2361   000A0A                     __end_of_increment_time:
  2362                           	callstack 0
  2363                           
  2364 ;; *************** function ___lmul *****************
  2365 ;; Defined at:
  2366 ;;		line 15 in file "C:\Program Files\Microchip\xc8\v2.40\pic\sources\c99\common\Umul32.c"
  2367 ;; Parameters:    Size  Location     Type
  2368 ;;  multiplier      4    0[COMRAM] unsigned long 
  2369 ;;  multiplicand    4    4[COMRAM] unsigned long 
  2370 ;; Auto vars:     Size  Location     Type
  2371 ;;  product         4    8[COMRAM] unsigned long 
  2372 ;; Return value:  Size  Location     Type
  2373 ;;                  4    0[COMRAM] unsigned long 
  2374 ;; Registers used:
  2375 ;;		wreg, status,2, status,0
  2376 ;; Tracked objects:
  2377 ;;		On entry : 0/0
  2378 ;;		On exit  : 0/0
  2379 ;;		Unchanged: 0/0
  2380 ;; Data sizes:     COMRAM   BANK0   BANK1   BANK2   BANK3   BANK4   BANK5   BANK6   BANK7   BANK8   BANK9  BANK10  BANK1
      +1  BANK12  BANK13
  2381 ;;      Params:         8       0       0       0       0       0       0       0       0       0       0       0       
      +0       0       0
  2382 ;;      Locals:         4       0       0       0       0       0       0       0       0       0       0       0       
      +0       0       0
  2383 ;;      Temps:          0       0       0       0       0       0       0       0       0       0       0       0       
      +0       0       0
  2384 ;;      Totals:        12       0       0       0       0       0       0       0       0       0       0       0       
      +0       0       0
  2385 ;;Total ram usage:       12 bytes
  2386 ;; Hardware stack levels used: 1
  2387 ;; This function calls:
  2388 ;;		Nothing
  2389 ;; This function is called by:
  2390 ;;		_increment_time
  2391 ;; This function uses a non-reentrant model
  2392 ;;
  2393                           
  2394                           	psect	text14
  2395   000A0A                     __ptext14:
  2396                           	callstack 0
  2397   000A0A                     ___lmul:
  2398                           	callstack 26
  2399   000A0A  0E00               	movlw	0
  2400   000A0C  6E09               	movwf	___lmul@product^0,c
  2401   000A0E  0E00               	movlw	0
  2402   000A10  6E0A               	movwf	(___lmul@product+1)^0,c
  2403   000A12  0E00               	movlw	0
  2404   000A14  6E0B               	movwf	(___lmul@product+2)^0,c
  2405   000A16  0E00               	movlw	0
  2406   000A18  6E0C               	movwf	(___lmul@product+3)^0,c
  2407   000A1A                     i2l1286:
  2408   000A1A  A001               	btfss	___lmul@multiplier^0,0,c
  2409   000A1C  EF12  F005         	goto	i2u73_41
  2410   000A20  EF14  F005         	goto	i2u73_40
  2411   000A24                     i2u73_41:
  2412   000A24  EF1C  F005         	goto	i2l1290
  2413   000A28                     i2u73_40:
  2414   000A28  5005               	movf	___lmul@multiplicand^0,w,c
  2415   000A2A  2609               	addwf	___lmul@product^0,f,c
  2416   000A2C  5006               	movf	(___lmul@multiplicand+1)^0,w,c
  2417   000A2E  220A               	addwfc	(___lmul@product+1)^0,f,c
  2418   000A30  5007               	movf	(___lmul@multiplicand+2)^0,w,c
  2419   000A32  220B               	addwfc	(___lmul@product+2)^0,f,c
  2420   000A34  5008               	movf	(___lmul@multiplicand+3)^0,w,c
  2421   000A36  220C               	addwfc	(___lmul@product+3)^0,f,c
  2422   000A38                     i2l1290:
  2423   000A38  90D8               	bcf	status,0,c
  2424   000A3A  3605               	rlcf	___lmul@multiplicand^0,f,c
  2425   000A3C  3606               	rlcf	(___lmul@multiplicand+1)^0,f,c
  2426   000A3E  3607               	rlcf	(___lmul@multiplicand+2)^0,f,c
  2427   000A40  3608               	rlcf	(___lmul@multiplicand+3)^0,f,c
  2428   000A42  90D8               	bcf	status,0,c
  2429   000A44  3204               	rrcf	(___lmul@multiplier+3)^0,f,c
  2430   000A46  3203               	rrcf	(___lmul@multiplier+2)^0,f,c
  2431   000A48  3202               	rrcf	(___lmul@multiplier+1)^0,f,c
  2432   000A4A  3201               	rrcf	___lmul@multiplier^0,f,c
  2433   000A4C  5001               	movf	___lmul@multiplier^0,w,c
  2434   000A4E  1002               	iorwf	(___lmul@multiplier+1)^0,w,c
  2435   000A50  1003               	iorwf	(___lmul@multiplier+2)^0,w,c
  2436   000A52  1004               	iorwf	(___lmul@multiplier+3)^0,w,c
  2437   000A54  A4D8               	btfss	status,2,c
  2438   000A56  EF2F  F005         	goto	i2u74_41
  2439   000A5A  EF31  F005         	goto	i2u74_40
  2440   000A5E                     i2u74_41:
  2441   000A5E  EF0D  F005         	goto	i2l1286
  2442   000A62                     i2u74_40:
  2443   000A62  C009  F001         	movff	___lmul@product,?___lmul
  2444   000A66  C00A  F002         	movff	___lmul@product+1,?___lmul+1
  2445   000A6A  C00B  F003         	movff	___lmul@product+2,?___lmul+2
  2446   000A6E  C00C  F004         	movff	___lmul@product+3,?___lmul+3
  2447   000A72  0012               	return		;funcret
  2448   000A74                     __end_of___lmul:
  2449                           	callstack 0
  2450   000000                     
  2451                           	psect	rparam
  2452   000000                     
  2453                           	psect	temp
  2454   000047                     btemp:
  2455                           	callstack 0
  2456   000047                     	ds	1
  2457   000000                     int$flags	set	btemp
  2458   000000                     wtemp8	set	btemp+1
  2459   000000                     ttemp5	set	btemp+1
  2460   000000                     ttemp6	set	btemp+4
  2461   000000                     ttemp7	set	btemp+8
  2462                           
  2463                           	psect	idloc
  2464                           
  2465                           ;Config register IDLOC0 @ 0x200000
  2466                           ;	unspecified, using default values
  2467   200000                     	org	2097152
  2468   200000  0FFF               	dw	4095
  2469                           
  2470                           ;Config register IDLOC1 @ 0x200002
  2471                           ;	unspecified, using default values
  2472   200002                     	org	2097154
  2473   200002  0FFF               	dw	4095
  2474                           
  2475                           ;Config register IDLOC2 @ 0x200004
  2476                           ;	unspecified, using default values
  2477   200004                     	org	2097156
  2478   200004  0FFF               	dw	4095
  2479                           
  2480                           ;Config register IDLOC3 @ 0x200006
  2481                           ;	unspecified, using default values
  2482   200006                     	org	2097158
  2483   200006  0FFF               	dw	4095
  2484                           
  2485                           ;Config register IDLOC4 @ 0x200008
  2486                           ;	unspecified, using default values
  2487   200008                     	org	2097160
  2488   200008  0FFF               	dw	4095
  2489                           
  2490                           ;Config register IDLOC5 @ 0x20000A
  2491                           ;	unspecified, using default values
  2492   20000A                     	org	2097162
  2493   20000A  0FFF               	dw	4095
  2494                           
  2495                           ;Config register IDLOC6 @ 0x20000C
  2496                           ;	unspecified, using default values
  2497   20000C                     	org	2097164
  2498   20000C  0FFF               	dw	4095
  2499                           
  2500                           ;Config register IDLOC7 @ 0x20000E
  2501                           ;	unspecified, using default values
  2502   20000E                     	org	2097166
  2503   20000E  0FFF               	dw	4095
  2504                           
  2505                           	psect	config
  2506                           
  2507                           ;Config register CONFIG1L @ 0x300000
  2508                           ;	External Oscillator mode Selection bits
  2509                           ;	FEXTOSC = HS, HS (crystal oscillator) above 8 MHz; PFM set to high power
  2510                           ;	Power-up default value for COSC bits
  2511                           ;	RSTOSC = EXTOSC_4PLL, EXTOSC with 4x PLL, with EXTOSC operating per FEXTOSC bits
  2512   300000                     	org	3145728
  2513   300000  AA                 	db	170
  2514                           
  2515                           ;Config register CONFIG1H @ 0x300001
  2516                           ;	unspecified, using default values
  2517                           ;	Clock Out Enable bit
  2518                           ;	CLKOUTEN = 0x1, unprogrammed default
  2519                           ;	Clock Switch Enable bit
  2520                           ;	CSWEN = 0x1, unprogrammed default
  2521                           ;	Fail-Safe Clock Monitor Enable bit
  2522                           ;	FCMEN = 0x1, unprogrammed default
  2523   300001                     	org	3145729
  2524   300001  FF                 	db	255
  2525                           
  2526                           ;Config register CONFIG2L @ 0x300002
  2527                           ;	unspecified, using default values
  2528                           ;	Master Clear Enable bit
  2529                           ;	MCLRE = 0x1, unprogrammed default
  2530                           ;	Power-up Timer Enable bit
  2531                           ;	PWRTE = 0x1, unprogrammed default
  2532                           ;	Low-power BOR enable bit
  2533                           ;	LPBOREN = 0x1, unprogrammed default
  2534                           ;	Brown-out Reset Enable bits
  2535                           ;	BOREN = 0x3, unprogrammed default
  2536   300002                     	org	3145730
  2537   300002  FF                 	db	255
  2538                           
  2539                           ;Config register CONFIG2H @ 0x300003
  2540                           ;	unspecified, using default values
  2541                           ;	Brown Out Reset Voltage selection bits
  2542                           ;	BORV = 0x3, unprogrammed default
  2543                           ;	ZCD Disable bit
  2544                           ;	ZCD = 0x1, unprogrammed default
  2545                           ;	PPSLOCK bit One-Way Set Enable bit
  2546                           ;	PPS1WAY = 0x1, unprogrammed default
  2547                           ;	Stack Full/Underflow Reset Enable bit
  2548                           ;	STVREN = 0x1, unprogrammed default
  2549                           ;	Debugger Enable bit
  2550                           ;	DEBUG = 0x1, unprogrammed default
  2551                           ;	Extended Instruction Set Enable bit
  2552                           ;	XINST = 0x1, unprogrammed default
  2553   300003                     	org	3145731
  2554   300003  FF                 	db	255
  2555                           
  2556                           ;Config register CONFIG3L @ 0x300004
  2557                           ;	WDT Period Select bits
  2558                           ;	WDTCPS = 0x1F, unprogrammed default
  2559                           ;	WDT operating mode
  2560                           ;	WDTE = OFF, WDT Disabled
  2561   300004                     	org	3145732
  2562   300004  9F                 	db	159
  2563                           
  2564                           ;Config register CONFIG3H @ 0x300005
  2565                           ;	unspecified, using default values
  2566                           ;	WDT Window Select bits
  2567                           ;	WDTCWS = 0x7, unprogrammed default
  2568                           ;	WDT input clock selector
  2569                           ;	WDTCCS = 0x7, unprogrammed default
  2570   300005                     	org	3145733
  2571   300005  FF                 	db	255
  2572                           
  2573                           ;Config register CONFIG4L @ 0x300006
  2574                           ;	unspecified, using default values
  2575                           ;	Write Protection Block 0
  2576                           ;	WRT0 = 0x1, unprogrammed default
  2577                           ;	Write Protection Block 1
  2578                           ;	WRT1 = 0x1, unprogrammed default
  2579                           ;	Write Protection Block 2
  2580                           ;	WRT2 = 0x1, unprogrammed default
  2581                           ;	Write Protection Block 3
  2582                           ;	WRT3 = 0x1, unprogrammed default
  2583                           ;	Write Protection Block 3
  2584                           ;	WRT4 = 0x1, unprogrammed default
  2585                           ;	Write Protection Block 3
  2586                           ;	WRT5 = 0x1, unprogrammed default
  2587                           ;	Write Protection Block 3
  2588                           ;	WRT6 = 0x1, unprogrammed default
  2589                           ;	Write Protection Block 3
  2590                           ;	WRT7 = 0x1, unprogrammed default
  2591   300006                     	org	3145734
  2592   300006  FF                 	db	255
  2593                           
  2594                           ;Config register CONFIG4H @ 0x300007
  2595                           ;	unspecified, using default values
  2596                           ;	Configuration Register Write Protection bit
  2597                           ;	WRTC = 0x1, unprogrammed default
  2598                           ;	Boot Block Write Protection bit
  2599                           ;	WRTB = 0x1, unprogrammed default
  2600                           ;	Data EEPROM Write Protection bit
  2601                           ;	WRTD = 0x1, unprogrammed default
  2602                           ;	Scanner Enable bit
  2603                           ;	SCANE = 0x1, unprogrammed default
  2604                           ;	Low Voltage Programming Enable bit
  2605                           ;	LVP = 0x1, unprogrammed default
  2606   300007                     	org	3145735
  2607   300007  FF                 	db	255
  2608                           
  2609                           ;Config register CONFIG5L @ 0x300008
  2610                           ;	unspecified, using default values
  2611                           ;	UserNVM Program Memory Code Protection bit
  2612                           ;	CP = 0x1, unprogrammed default
  2613                           ;	DataNVM Memory Code Protection bit
  2614                           ;	CPD = 0x1, unprogrammed default
  2615   300008                     	org	3145736
  2616   300008  FF                 	db	255
  2617                           
  2618                           ;Config register CONFIG5H @ 0x300009
  2619                           ;	unspecified, using default values
  2620   300009                     	org	3145737
  2621   300009  FF                 	db	255
  2622                           
  2623                           ;Config register CONFIG6L @ 0x30000A
  2624                           ;	unspecified, using default values
  2625                           ;	Table Read Protection Block 0
  2626                           ;	EBTR0 = 0x1, unprogrammed default
  2627                           ;	Table Read Protection Block 1
  2628                           ;	EBTR1 = 0x1, unprogrammed default
  2629                           ;	Table Read Protection Block 2
  2630                           ;	EBTR2 = 0x1, unprogrammed default
  2631                           ;	Table Read Protection Block 3
  2632                           ;	EBTR3 = 0x1, unprogrammed default
  2633                           ;	Table Read Protection Block 4
  2634                           ;	EBTR4 = 0x1, unprogrammed default
  2635                           ;	Table Read Protection Block 5
  2636                           ;	EBTR5 = 0x1, unprogrammed default
  2637                           ;	Table Read Protection Block 6
  2638                           ;	EBTR6 = 0x1, unprogrammed default
  2639                           ;	Table Read Protection Block 7
  2640                           ;	EBTR7 = 0x1, unprogrammed default
  2641   30000A                     	org	3145738
  2642   30000A  FF                 	db	255
  2643                           
  2644                           ;Config register CONFIG6H @ 0x30000B
  2645                           ;	unspecified, using default values
  2646                           ;	Boot Block Table Read Protection bit
  2647                           ;	EBTRB = 0x1, unprogrammed default
  2648   30000B                     	org	3145739
  2649   30000B  FF                 	db	255
  2650                           tosu	equ	0xFFF
  2651                           tosh	equ	0xFFE
  2652                           tosl	equ	0xFFD
  2653                           stkptr	equ	0xFFC
  2654                           pclatu	equ	0xFFB
  2655                           pclath	equ	0xFFA
  2656                           pcl	equ	0xFF9
  2657                           tblptru	equ	0xFF8
  2658                           tblptrh	equ	0xFF7
  2659                           tblptrl	equ	0xFF6
  2660                           tablat	equ	0xFF5
  2661                           prodh	equ	0xFF4
  2662                           prodl	equ	0xFF3
  2663                           indf0	equ	0xFEF
  2664                           postinc0	equ	0xFEE
  2665                           postdec0	equ	0xFED
  2666                           preinc0	equ	0xFEC
  2667                           plusw0	equ	0xFEB
  2668                           fsr0h	equ	0xFEA
  2669                           fsr0l	equ	0xFE9
  2670                           wreg	equ	0xFE8
  2671                           indf1	equ	0xFE7
  2672                           postinc1	equ	0xFE6
  2673                           postdec1	equ	0xFE5
  2674                           preinc1	equ	0xFE4
  2675                           plusw1	equ	0xFE3
  2676                           fsr1h	equ	0xFE2
  2677                           fsr1l	equ	0xFE1
  2678                           bsr	equ	0xFE0
  2679                           indf2	equ	0xFDF
  2680                           postinc2	equ	0xFDE
  2681                           postdec2	equ	0xFDD
  2682                           preinc2	equ	0xFDC
  2683                           plusw2	equ	0xFDB
  2684                           fsr2h	equ	0xFDA
  2685                           fsr2l	equ	0xFD9
  2686                           status	equ	0xFD8

Data Sizes:
    Strings     0
    Constant    0
    Data        0
    BSS         4
    Persistent  2
    Stack       0

Auto Spaces:
    Space          Size  Autos    Used
    COMRAM           94     64      70
    BANK0           160      0       0
    BANK1           256      0       0
    BANK2           256      0       0
    BANK3           256      0       0
    BANK4           256      0       0
    BANK5           256      0       0
    BANK6           256      0       0
    BANK7           256      0       0
    BANK8           256      0       0
    BANK9           256      0       0
    BANK10          256      0       0
    BANK11          256      0       0
    BANK12          256      0       0
    BANK13          234      0       0

Pointer List with Targets:

    None.

Critical Paths under _main in COMRAM

    _main->_get_hour
    _get_hour->___fldiv
    ___fldiv->___xxtofl
    _LEDarray_disp_bin->___fltol

Critical Paths under _HighISR in COMRAM

    _HighISR->_increment_time
    _increment_time->___lmul

Critical Paths under _main in BANK0

    None.

Critical Paths under _HighISR in BANK0

    None.

Critical Paths under _main in BANK1

    None.

Critical Paths under _HighISR in BANK1

    None.

Critical Paths under _main in BANK2

    None.

Critical Paths under _HighISR in BANK2

    None.

Critical Paths under _main in BANK3

    None.

Critical Paths under _HighISR in BANK3

    None.

Critical Paths under _main in BANK4

    None.

Critical Paths under _HighISR in BANK4

    None.

Critical Paths under _main in BANK5

    None.

Critical Paths under _HighISR in BANK5

    None.

Critical Paths under _main in BANK6

    None.

Critical Paths under _HighISR in BANK6

    None.

Critical Paths under _main in BANK7

    None.

Critical Paths under _HighISR in BANK7

    None.

Critical Paths under _main in BANK8

    None.

Critical Paths under _HighISR in BANK8

    None.

Critical Paths under _main in BANK9

    None.

Critical Paths under _HighISR in BANK9

    None.

Critical Paths under _main in BANK10

    None.

Critical Paths under _HighISR in BANK10

    None.

Critical Paths under _main in BANK11

    None.

Critical Paths under _HighISR in BANK11

    None.

Critical Paths under _main in BANK12

    None.

Critical Paths under _HighISR in BANK12

    None.

Critical Paths under _main in BANK13

    None.

Critical Paths under _HighISR in BANK13

    None.

Call Graph Tables:

 ---------------------------------------------------------------------------------
 (Depth) Function   	        Calls       Base Space   Used Autos Params    Refs
 ---------------------------------------------------------------------------------
 (0) _main                                                 4     4      0    3179
                                             60 COMRAM     4     4      0
                         _Comp1_init
                    _Interrupts_init
                  _LEDarray_disp_bin
                      _LEDarray_init
                        _Timer0_init
                             ___flge
                            ___fltol
                           _get_hour
 ---------------------------------------------------------------------------------
 (1) _get_hour                                             4     0      4    1797
                                             56 COMRAM     4     0      4
                            ___fldiv
                           ___xxtofl
 ---------------------------------------------------------------------------------
 (2) ___xxtofl                                            14    10      4     398
                                             17 COMRAM    14    10      4
 ---------------------------------------------------------------------------------
 (2) ___fldiv                                             25    17      8    1399
                                             31 COMRAM    25    17      8
                           ___xxtofl (ARG)
 ---------------------------------------------------------------------------------
 (1) ___fltol                                             10     6      4     305
                                             17 COMRAM    10     6      4
 ---------------------------------------------------------------------------------
 (1) ___flge                                              12     4      8     486
                                             17 COMRAM    12     4      8
 ---------------------------------------------------------------------------------
 (1) _Timer0_init                                          2     0      2      98
                                             17 COMRAM     2     0      2
 ---------------------------------------------------------------------------------
 (1) _LEDarray_init                                        0     0      0       0
 ---------------------------------------------------------------------------------
 (1) _LEDarray_disp_bin                                    2     0      2     426
                                             27 COMRAM     2     0      2
                            ___fltol (ARG)
 ---------------------------------------------------------------------------------
 (1) _Interrupts_init                                      0     0      0       0
 ---------------------------------------------------------------------------------
 (1) _Comp1_init                                           0     0      0       0
                           _DAC_init
 ---------------------------------------------------------------------------------
 (2) _DAC_init                                             0     0      0       0
 ---------------------------------------------------------------------------------
 Estimated maximum stack depth 2
 ---------------------------------------------------------------------------------
 (Depth) Function   	        Calls       Base Space   Used Autos Params    Refs
 ---------------------------------------------------------------------------------
 (3) _HighISR                                              1     1      0     490
                                             16 COMRAM     1     1      0
                     _increment_time
 ---------------------------------------------------------------------------------
 (4) _increment_time                                       4     0      4     490
                                             12 COMRAM     4     0      4
                             ___lmul
 ---------------------------------------------------------------------------------
 (5) ___lmul                                              12     4      8     370
                                              0 COMRAM    12     4      8
 ---------------------------------------------------------------------------------
 Estimated maximum stack depth 5
 ---------------------------------------------------------------------------------

 Call Graph Graphs:

 _main (ROOT)
   _Comp1_init
     _DAC_init
   _Interrupts_init
   _LEDarray_disp_bin
     ___fltol (ARG)
   _LEDarray_init
   _Timer0_init
   ___flge
   ___fltol
   _get_hour
     ___fldiv
       ___xxtofl (ARG)
     ___xxtofl

 _HighISR (ROOT)
   _increment_time
     ___lmul

 Address spaces:
Name               Size   Autos  Total    Cost      Usage
BIGRAM             DE9      0       0      49        0.0%
EEDATA             400      0       0       0        0.0%
BITBANK12          100      0       0      28        0.0%
BANK12             100      0       0      29        0.0%
BITBANK11          100      0       0      26        0.0%
BANK11             100      0       0      27        0.0%
BITBANK10          100      0       0      24        0.0%
BANK10             100      0       0      25        0.0%
BITBANK9           100      0       0      22        0.0%
BANK9              100      0       0      23        0.0%
BITBANK8           100      0       0      20        0.0%
BANK8              100      0       0      21        0.0%
BITBANK7           100      0       0      18        0.0%
BANK7              100      0       0      19        0.0%
BITBANK6           100      0       0      16        0.0%
BANK6              100      0       0      17        0.0%
BITBANK5           100      0       0      14        0.0%
BANK5              100      0       0      15        0.0%
BITBANK4           100      0       0      12        0.0%
BANK4              100      0       0      13        0.0%
BITBANK3           100      0       0      10        0.0%
BANK3              100      0       0      11        0.0%
BITBANK2           100      0       0       8        0.0%
BANK2              100      0       0       9        0.0%
BITBANK1           100      0       0       6        0.0%
BANK1              100      0       0       7        0.0%
BITBANK13           EA      0       0      30        0.0%
BANK13              EA      0       0      31        0.0%
BITBIGSFRllllhh     A5      0       0      40        0.0%
BITBANK0            A0      0       0       4        0.0%
BANK0               A0      0       0       5        0.0%
BITBIGSFRlllllh     90      0       0      42        0.0%
BITCOMRAM           5E      0       0       0        0.0%
COMRAM              5E     40      46       1       74.5%
BITBIGSFRhhll       43      0       0      34        0.0%
BITBIGSFRllllll     32      0       0      47        0.0%
BITBIGSFRhhlhh      1B      0       0      33        0.0%
BITBIGSFRhhh         D      0       0      32        0.0%
BITBIGSFRllllhl      8      0       0      41        0.0%
BITBIGSFRllllll      7      0       0      46        0.0%
BITBIGSFRlllllh      7      0       0      44        0.0%
BITBIGSFRhlh         3      0       0      35        0.0%
BITBIGSFRlllllh      1      0       0      43        0.0%
BITBIGSFRllllll      1      0       0      45        0.0%
BITBIGSFRlllhh       1      0       0      38        0.0%
BITBIGSFRlhh         1      0       0      36        0.0%
BITBIGSFRlllhl       1      0       0      39        0.0%
BITBIGSFRlhl         1      0       0      37        0.0%
BIGSFR               0      0       0     200        0.0%
BITSFR_3             0      0       0     200        0.0%
SFR_3                0      0       0     200        0.0%
BITSFR_2             0      0       0     200        0.0%
SFR_2                0      0       0     200        0.0%
BITSFR_1             0      0       0     200        0.0%
SFR_1                0      0       0     200        0.0%
BITSFR               0      0       0     200        0.0%
SFR                  0      0       0     200        0.0%
STACK                0      0       0       2        0.0%
NULL                 0      0       0       0        0.0%
ABS                  0      0      46      48        0.0%
DATA                 0      0      46       3        0.0%
CODE                 0      0       0       0        0.0%


Microchip Technology PIC18 Macro Assembler V2.40 build 20220703182018 
Symbol Table                                                                                   Fri Nov 04 18:05:20 2022

             ___fldiv@aexp 0038               ___fldiv@bexp 0037               ___fldiv@sign 0030  
                       l30 08CC                         l31 08CE                         l40 093A  
                       l32 08E2                         l41 093C                         l33 08E4  
                       l42 0950                         l34 08F8                         l43 0952  
                       l35 08FA                         l27 0B40                         l44 0966  
                       l36 090E                         l45 0968                         l37 0910  
                       l46 097C                         l38 0924                         l39 0926  
                       l48 097E                         l90 08AE          ??_Interrupts_init 0012  
                      l111 0B78                        l114 0B64                        l139 0B9A  
                      l167 0B08                        l186 0ABE                        l454 07A4  
                      l459 07EA                        l486 06E6                        l771 042C  
                      l851 051C                        l844 0484                        l773 028C  
                      l862 0B66                        l782 02D2                        l847 05E0  
                      l864 0B6C                        l784 034A                        l776 0250  
                      l785 0338                        l866 0B76                        l858 0578  
                      u800 0136                        u801 0132                        u810 0176  
                      u811 0172                        u900 0302                        u820 01B6  
                      u901 02FE                        u821 01B2                        u910 0330  
                      u830 022C                        u750 00AE                        u911 032C  
                      u831 0228                        u751 00AA                        u920 0346  
                      u840 024E                        u760 00C0                        u921 0342  
                      u841 024A                        u761 00BC                        u930 035A  
                      u850 0278                        u770 00D0                        u931 0356  
                      u851 0274                        u771 00CC                        u940 0374  
                      u860 029C                        u780 0114                        u941 0370  
                      u861 0298                        u781 0110                        u950 03BC  
                      u870 02B2                        u790 0126                        u951 03B8  
                      u871 02AE                        u791 0122                        u960 03EC  
                      u880 02D0                        u961 03E8                        u881 02CC  
                      u970 041A                        u890 02F0                        u971 0416  
                      u891 02EC                        u980 0440                        u981 043C  
                      u990 044E                        u991 044A                        wreg 000FE8  
             ___fltol@exp1 001B                       l1300 00B0                       l1062 0B0A  
                     l1302 00C0                       l1310 00EA                       l1400 035A  
                     l1320 0116                       l1312 00FA                       l1304 00D0  
                     l1090 0B58                       l1410 03BC                       l1402 0366  
                     l1322 0126                       l1330 0150                       l1314 0100  
                     l1306 00E0                       l1092 0B5A                       l1084 0B42  
                     l1500 0AC8                       l1420 041A                       l1412 03D2  
                     l1404 0374                       l1340 0192                       l1332 0160  
                     l1324 0136                       l1316 0106                       l1308 00E2  
                     l1094 0B5C                       l1086 0B44                       l1510 0AFA  
                     l1502 0AD0                       l1422 0420                       l1414 03EC  
                     l1406 039E                       l1334 0176                       l1326 0146  
                     l1318 0114                       l1096 0B60                       l1088 0B56  
                     l1512 0B06                       l1504 0AD2                       l1424 0422  
                     l1416 0408                       l1408 03A2                       l1360 0214  
                     l1352 01CA                       l1336 0186                       l1344 01A6  
                     l1328 0148                       l1440 04AA                       l1432 0430  
                     l1098 0B8C                       l1506 0AD4                       l1530 06E8  
                     l1418 040C                       l1370 025A                       l1362 021C  
                     l1354 01E4                       l1346 01B6                       l1338 018E  
                     l1450 0504                       l1434 0440                       l1514 0A74  
                     l1508 0AE6                       l1540 0772                       l1532 0716  
                     l1380 02B2                       l1372 0278                       l1364 022C  
                     l1356 01F4                       l1348 01B6                       l1460 0568  
                     l1452 0506                       l1444 04BE                       l1436 044E  
                     l1542 0784                       l1534 0726                       l1390 02F0  
                     l1382 02B8                       l1374 027A                       l1366 0240  
                     l1358 0204                       l1294 0094                       l1470 05C0  
                     l1462 0586                       l1454 0512                       l1446 04C6  
                     l1438 0494                       l1630 07F8                       l1480 08C6  
                     l1544 0792                       l1536 0754                       l1560 0636  
                     l1552 05E2                       l1392 02F4                       l1384 02C2  
                     l1376 028A                       l1368 024E                       l1296 00A0  
                     l1472 05CE                       l1464 0588                       l1456 054E  
                     l1448 04D2                       l1640 0824                       l1632 07FC  
                     l1490 0934                       l1482 08DC                       l1546 07E2  
                     l1538 0764                       l1562 0638                       l1554 05F8  
                     l1394 0302                       l1386 02D0                       l1378 029C  
                     l1298 00AE                       l1474 05D0                       l1466 058C  
                     l1458 055A                       l1642 0844                       l1634 0800  
                     l1492 094A                       l1484 08F2                       l1548 07E8  
                     l1564 0648                       l1396 0330                       l1388 02E2  
                     l1468 05B0                       l1644 0876                       l1636 080C  
                     l1628 07EC                       l1494 0960                       l1486 0908  
                     l1478 08B8                       l1590 06C6                       l1574 0672  
                     l1566 064C                       l1558 060C                       l1646 08A8  
                     l1638 0810                       l1496 0976                       l1488 091E  
                     l1592 06D6                       l1584 069A                       l1576 067C  
                     l1568 065A                       l1498 0AC0                       l1586 06A6  
                     l1578 0686                       l1588 06B6                       u1000 04AA  
                     u1001 04A6                       u1010 0500                       u1011 04FC  
                     u1100 08F2                       u1020 054A                       u1101 08EE  
                     u1021 0546                       u1110 0908                       u1030 0568  
                     u1111 0904                       u1031 0564                       u1120 091E  
                     u1200 0716                       u1040 0578                       u1121 091A  
                     u1201 0712                       u1041 0574                       u1130 0934  
                     u1210 0754                       u1050 0586                       u1131 0930  
                     u1211 0750                       u1051 0582                       u1140 094A  
                     u1220 0772                       u1300 06B6                       u1060 05C0  
                     u1141 0946                       u1221 076E                       u1301 06B2  
                     u1061 05BC                       u1150 0960                       u1230 0792  
                     u1310 06C6                       u1070 05CE                       u1151 095C  
                     u1231 078E                       u1311 06C2                       u1071 05CA  
                     u1160 0976                       u1080 08C6                       u1240 07E2  
                     u1161 0972                       u1081 08C2                       u1241 07DE  
                     u1090 08DC                       u1170 0AE6                       u1250 05F8  
                     u1091 08D8                       u1171 0AE2                       u1251 05F4  
                     u1260 062C                       u1270 065A                       u1271 0656  
                     u1280 066E                       u1281 066A                       u1265 0622  
                     u1290 0696                       u1370 0876                       u1291 0692  
                     u1371 0872                       u1380 08A8                       u1381 08A4  
                     _main 07EC                       btemp 0047                       start 0090  
          ___fldiv@new_exp 0031           __end_of_DAC_init 0B7A            __end_of_HighISR 0090  
             ___param_bank 000000                 _Comp1_init 0B42              ___fltol@sign1 001A  
                    ?_main 0001            __end_of___fldiv 042E            __end_of___fltol 06E8  
                    i2l200 0A62                      i2l201 0A72                      i2l148 008C  
                    i2l183 0A08                      _TMR0H 000FD4                      _TMR0L 000FD3  
      ___lmul@multiplicand 0005                      ttemp5 0048                      ttemp6 004B  
                    ttemp7 004F                      status 000FD8                      wtemp8 0048  
          __initialization 0B7A               __end_of_main 08B8                     ??_main 003D  
            __activetblptr 000000                     i2l1520 0992                     i2l1290 0A38  
                   i2l1522 09A6                     i2l1292 0A42                     i2l1284 0A0A  
                   i2l1524 09DA                     i2l1286 0A1A                     i2l1526 09F8  
                   i2l1518 0980                     i2l1288 0A28                     i2l1650 001A  
                   i2l1660 0074                     i2l1652 003C                     i2l1662 0080  
                   i2l1654 0040                     i2l1664 0088                     i2l1656 004E  
                   i2l1648 000A                     i2l1658 0062                  ??_HighISR 0011  
         __end_of___xxtofl 05E2          _LEDarray_disp_bin 08B8         ?_LEDarray_disp_bin 001C  
            ??_Timer0_init 0014           __end_of_get_hour 0AC0                     ___flge 06E8  
                   ___lmul 0A0A                ?_Comp1_init 0001                  ??___fldiv 0028  
                ??___fltol 0016        ??_LEDarray_disp_bin 001E                     isa$std 000001  
                ?_DAC_init 0001                 ___flge@ff1 0012                 ___flge@ff2 0016  
             ___xxtofl@arg 001C               ___xxtofl@exp 001B  __end_of_LEDarray_disp_bin 0980  
             ___xxtofl@val 0012                 __accesstop 0060    __end_of__initialization 0B82  
            ___rparam_used 000001                 ___fltol@f1 0012              _LEDarray_init 0B0A  
          _Interrupts_init 0B8C             __pcstackCOMRAM 0001        __end_of_Timer0_init 0B0A  
               ??_DAC_init 0012                 __pnvCOMRAM 0045             ?_LEDarray_init 0001  
                  ?___flge 0012                    ?___lmul 0001             ___lmul@product 0009  
                ?___xxtofl 0012                    i2u73_40 0A28                    i2u73_41 0A24  
                  i2u74_40 0A62                    i2u74_41 0A5E                  ?_get_hour 0039  
  __end_of_Interrupts_init 0B9C                    _HighISR 0008                    __Hparam 0000  
                  __Lparam 0000                _Timer0_init 0AC0                    ___fldiv 0094  
                  ___fltol 05E2    increment_time@increment 000D                    __pcinit 0B7A  
                  __ramtop 0E00                    __ptext0 07EC                    __ptext1 0A74  
                  __ptext2 042E                    __ptext3 0094                    __ptext4 05E2  
                  __ptext5 06E8                    __ptext6 0AC0                    __ptext7 0B0A  
                  __ptext8 08B8                    __ptext9 0B8C                 ??___xxtofl 0016  
           _increment_time 0980                 ??_get_hour 003D       end_of_initialization 0B82  
          ??_LEDarray_init 0012               ??_Comp1_init 0012                  _PORTAbits 000F89  
                _PORTBbits 000F8A                  _PORTFbits 000F8E                  _PORTGbits 000F8F  
Timer0_init@init_test_mode 0012              ___xxtofl@sign 001A                  _TRISAbits 000F81  
                _TRISBbits 000F82     __end_of_increment_time 0A0A                  _TRISDbits 000F84  
                _TRISFbits 000F86                  _TRISGbits 000F87                  _TRISHbits 000F88  
              ___fldiv@grs 0033                ___fldiv@rem 002C         __end_of_Comp1_init 0B66  
              _CM1CON0bits 000ED0                _CM1CON1bits 000ED1           ?_Interrupts_init 0001  
           __end_of___flge 07EC             __end_of___lmul 0A74        start_initialization 0B7A  
          ?_increment_time 000D                   ??___flge 001A                   ??___lmul 0009  
                ___fldiv@a 0024                  ___fldiv@b 0020                __pbssCOMRAM 0041  
                 ?_HighISR 0001               ?_Timer0_init 0012                  __pintcode 0008  
                 ?___fldiv 0020                   ?___fltol 0012                   _DAC_init 0B66  
                 _LATAbits 000F79                   _LATBbits 000F7A                   _LATDbits 000F7C  
                 _LATFbits 000F7E                   _LATGbits 000F7F                   _LATHbits 000F80  
                 _PIE0bits 000E29                   _IPR2bits 000E21                   _PIE2bits 000E2B  
                 i2u140_40 002C                   i2u140_41 0024                   i2u118_40 0992  
                 i2u142_40 004E                   i2u141_48 002E                   i2u118_41 098E  
                 i2u142_41 004A                   i2u119_40 09F8                   i2u143_40 0074  
                 i2u119_41 09F4                   i2u143_41 0070                   i2u139_40 001A  
                 i2u139_41 0016                   _PIR0bits 000E33                   _PIR2bits 000E35  
                _test_mode 0045                 _CM1NCHbits 000ED2                 _CM1PCHbits 000ED3  
        ___lmul@multiplier 0001      __end_of_LEDarray_init 0B42                   __Hrparam 0000  
                 __Lrparam 0000           ??_increment_time 0011                   ___xxtofl 042E  
               _T0CON0bits 000FD5                 _T0CON1bits 000FD6                   __ptext10 0B42  
                 __ptext11 0B66                   __ptext13 0980                   __ptext14 0A0A  
                 _get_hour 0A74    LEDarray_disp_bin@number 001C                   isa$xinst 000000  
                 int$flags 0047                   main@time 003D                 _INTCONbits 000FF2  
             _time_counter 0041                   intlevel2 0000               _DAC1CON0bits 000EC6  
             _DAC1CON1bits 000EC7  
